
C:/Users/lianne/Desktop/a3q2/main.elf:     file format elf32-littlenios2
C:/Users/lianne/Desktop/a3q2/main.elf
architecture: nios2, flags 0x00000112:
EXEC_P, HAS_SYMS, D_PAGED
start address 0x00000000

Program Header:
    LOAD off    0x00001000 vaddr 0x00000000 paddr 0x00000000 align 2**12
         filesz 0x00000828 memsz 0x00000828 flags rwx

Sections:
Idx Name          Size      VMA       LMA       File off  Algn
  0 .text         0000041c  00000000  00000000  00001000  2**3
                  CONTENTS, ALLOC, LOAD, READONLY, CODE
  1 .rodata       00000004  0000041c  0000041c  0000141c  2**2
                  CONTENTS, ALLOC, LOAD, READONLY, DATA
  2 .data         00000400  00000420  00000420  00001420  2**2
                  CONTENTS, ALLOC, LOAD, DATA
  3 .sdata        00000008  00000820  00000820  00001820  2**2
                  CONTENTS, ALLOC, LOAD, DATA, SMALL_DATA
  4 .stab         000000cc  00000000  00000000  00001828  2**2
                  CONTENTS, READONLY, DEBUGGING
  5 .stabstr      00000029  00000000  00000000  000018f4  2**0
                  CONTENTS, READONLY, DEBUGGING
  6 .comment      00000023  00000000  00000000  0000191d  2**0
                  CONTENTS, READONLY
  7 .debug_aranges 00000120  00000000  00000000  00001940  2**3
                  CONTENTS, READONLY, DEBUGGING
  8 .debug_info   00002228  00000000  00000000  00001a60  2**0
                  CONTENTS, READONLY, DEBUGGING
  9 .debug_abbrev 00000866  00000000  00000000  00003c88  2**0
                  CONTENTS, READONLY, DEBUGGING
 10 .debug_line   00000b09  00000000  00000000  000044ee  2**0
                  CONTENTS, READONLY, DEBUGGING
 11 .debug_frame  00000158  00000000  00000000  00004ff8  2**2
                  CONTENTS, READONLY, DEBUGGING
 12 .debug_str    000008b0  00000000  00000000  00005150  2**0
                  CONTENTS, READONLY, DEBUGGING
 13 .debug_loc    000004ef  00000000  00000000  00005a00  2**0
                  CONTENTS, READONLY, DEBUGGING
 14 .debug_ranges 00000030  00000000  00000000  00005eef  2**0
                  CONTENTS, READONLY, DEBUGGING
SYMBOL TABLE:
00000000 l    d  .text	00000000 .text
0000041c l    d  .rodata	00000000 .rodata
00000420 l    d  .data	00000000 .data
00000820 l    d  .sdata	00000000 .sdata
00000000 l    d  .stab	00000000 .stab
00000000 l    d  .stabstr	00000000 .stabstr
00000000 l    d  .comment	00000000 .comment
00000000 l    d  .debug_aranges	00000000 .debug_aranges
00000000 l    d  .debug_info	00000000 .debug_info
00000000 l    d  .debug_abbrev	00000000 .debug_abbrev
00000000 l    d  .debug_line	00000000 .debug_line
00000000 l    d  .debug_frame	00000000 .debug_frame
00000000 l    d  .debug_str	00000000 .debug_str
00000000 l    d  .debug_loc	00000000 .debug_loc
00000000 l    d  .debug_ranges	00000000 .debug_ranges
00000000 l    df *ABS*	00000000 main.c
00000000 l    df *ABS*	00000000 nosys_crt0.c
00000000 l    df *ABS*	00000000 _zero_bss.c
00000000 l    df *ABS*	00000000 exit.c
00000000 l    df *ABS*	00000000 impure.c
00000420 l     O .data	00000400 impure_data
00000000 l    df *ABS*	00000000 memset.c
00000000 l    df *ABS*	00000000 __call_atexit.c
00000000 l    df *ABS*	00000000 nosys_exit.c
00000000 l    df *ABS*	00000000 
00000420 g       .rodata	00000000 _nasys_data_destination
00000000 g       *ABS*	00000000 nasys_data_mem
0000006c g     F .text	00000004 __fake_init
0000041c g       .rodata	00000000 _etext
00008810 g       *ABS*	00000000 _gp
0000041c g       .rodata	00000000 _ctors_end
00000070 g     F .text	00000040 __start_2
00000828 g       .rodata	00000000 _nasys_data_source_end
00000000 g       *ABS*	00000000 nasys_program_mem
0000041c g       .rodata	00000000 _dtors_end
00000820 g     O .sdata	00000004 _global_impure_ptr
00000828 g       .sdata	00000000 _nasys_uninitialized_storage
000000b0 g     F .text	00000004 _zero_bss
0000006c  w    F .text	00000004 _init
00000420 g       .rodata	00000000 _nasys_rodata_end
00000420 g       .rodata	00000000 _nasys_data_source
000003ec g     F .text	00000030 sumtwo
000001c8 g     F .text	000001a0 __call_exitprocs
00000828 g       .sdata	00000000 _bss
00000000 g     F .text	00000000 _start
00000030 g       .text	00000000 sumthree
00000368 g     F .text	00000004 __fake_fini
00000820 g       .data	00000000 _nasys_data_destination_end
00000828 g       .sdata	00000000 __bss_start
000000ec g     F .text	000000dc memset
00000398 g     F .text	00000054 main
00000368  w    F .text	00000004 _fini
00000824 g     O .sdata	00000004 _impure_ptr
0000041c g       .rodata	00000000 _dtors_begin
00000420 g       .data	00000000 _data
00800000 g       *ABS*	00000000 nasys_stack_top
00000828 g       .sdata	00000000 _edata
00000828 g       .sdata	00000000 _end
000000b4 g     F .text	00000038 exit
0000041c g       .rodata	00000000 _nasys_rodata
0000036c g     F .text	0000002c _exit
00000828 g       .sdata	00000000 _nasys_uninitialized_storage_end
0000041c g       .rodata	00000000 _ctors_begin
00000000  w      *UND*	00000000 free



Disassembly of section .text:

00000000 <_start>:
   0:	06c02034 	movhi	sp,128
   4:	dec00004 	addi	sp,sp,0
   8:	def6303a 	nor	sp,sp,sp
   c:	dec001d4 	ori	sp,sp,7
  10:	def6303a 	nor	sp,sp,sp
  14:	06800074 	movhi	gp,1
  18:	d6a20404 	addi	gp,gp,-30704
  1c:	06000034 	movhi	et,0
  20:	c6020a04 	addi	et,et,2088
  24:	00800034 	movhi	r2,0
  28:	10801c04 	addi	r2,r2,112
  2c:	1000683a 	jmp	r2

00000030 <sumthree>:
.text
.global sumthree
sumthree:

addi sp, sp, -24;
  30:	defffa04 	addi	sp,sp,-24

stw ra, 20(sp);
  34:	dfc00515 	stw	ra,20(sp)
stw fp, 16(sp);
  38:	df000415 	stw	fp,16(sp)
addi fp, fp, -24;
  3c:	e73ffa04 	addi	fp,fp,-24
stw r4, 12(sp);
  40:	d9000315 	stw	r4,12(sp)
stw r5, 8(sp);
  44:	d9400215 	stw	r5,8(sp)
stw r6, 4(sp);
  48:	d9800115 	stw	r6,4(sp)


call sumtwo
  4c:	00003ec0 	call	3ec <sumtwo>

stw r2, 0(sp);
  50:	d8800015 	stw	r2,0(sp)
stw r4, 0(sp);
  54:	d9000015 	stw	r4,0(sp)
stw r5, 4(sp);
  58:	d9400115 	stw	r5,4(sp)

call sumtwo
  5c:	00003ec0 	call	3ec <sumtwo>

stw r2, 0(sp);
  60:	d8800015 	stw	r2,0(sp)

ldw ra, 20(sp);
  64:	dfc00517 	ldw	ra,20(sp)

ret
  68:	f800283a 	ret

0000006c <__fake_init>:
  6c:	f800283a 	ret

00000070 <__start_2>:
  70:	01000034 	movhi	r4,0
  74:	21020a04 	addi	r4,r4,2088
  78:	01800034 	movhi	r6,0
  7c:	31820a04 	addi	r6,r6,2088
  80:	deffff04 	addi	sp,sp,-4
  84:	310dc83a 	sub	r6,r6,r4
  88:	000b883a 	mov	r5,zero
  8c:	dfc00015 	stw	ra,0(sp)
  90:	00000b00 	call	b0 <_zero_bss>
  94:	000006c0 	call	6c <__fake_init>
  98:	0009883a 	mov	r4,zero
  9c:	000b883a 	mov	r5,zero
  a0:	000d883a 	mov	r6,zero
  a4:	00003980 	call	398 <main>
  a8:	1009883a 	mov	r4,r2
  ac:	00000b40 	call	b4 <exit>

000000b0 <_zero_bss>:
  b0:	00000ec1 	jmpi	ec <memset>

000000b4 <exit>:
  b4:	defffe04 	addi	sp,sp,-8
  b8:	000b883a 	mov	r5,zero
  bc:	dc000015 	stw	r16,0(sp)
  c0:	dfc00115 	stw	ra,4(sp)
  c4:	2021883a 	mov	r16,r4
  c8:	00001c80 	call	1c8 <__call_exitprocs>
  cc:	00800034 	movhi	r2,0
  d0:	10820804 	addi	r2,r2,2080
  d4:	11000017 	ldw	r4,0(r2)
  d8:	20800f17 	ldw	r2,60(r4)
  dc:	10000126 	beq	r2,zero,e4 <exit+0x30>
  e0:	103ee83a 	callr	r2
  e4:	8009883a 	mov	r4,r16
  e8:	000036c0 	call	36c <_exit>

000000ec <memset>:
  ec:	00c000c4 	movi	r3,3
  f0:	2005883a 	mov	r2,r4
  f4:	29403fcc 	andi	r5,r5,255
  f8:	19802d2e 	bgeu	r3,r6,1b0 <memset+0xc4>
  fc:	20c6703a 	and	r3,r4,r3
 100:	18002e1e 	bne	r3,zero,1bc <memset+0xd0>
 104:	2806923a 	slli	r3,r5,8
 108:	010003c4 	movi	r4,15
 10c:	3011883a 	mov	r8,r6
 110:	1946b03a 	or	r3,r3,r5
 114:	180e943a 	slli	r7,r3,16
 118:	38ceb03a 	or	r7,r7,r3
 11c:	1007883a 	mov	r3,r2
 120:	21800f2e 	bgeu	r4,r6,160 <memset+0x74>
 124:	19c00015 	stw	r7,0(r3)
 128:	19c00115 	stw	r7,4(r3)
 12c:	19c00215 	stw	r7,8(r3)
 130:	19c00315 	stw	r7,12(r3)
 134:	423ffc04 	addi	r8,r8,-16
 138:	18c00404 	addi	r3,r3,16
 13c:	223ff936 	bltu	r4,r8,124 <memset+0x38>
 140:	30fffc04 	addi	r3,r6,-16
 144:	1806d13a 	srli	r3,r3,4
 148:	318003cc 	andi	r6,r6,15
 14c:	010000c4 	movi	r4,3
 150:	18c00044 	addi	r3,r3,1
 154:	1806913a 	slli	r3,r3,4
 158:	10c7883a 	add	r3,r2,r3
 15c:	21800e2e 	bgeu	r4,r6,198 <memset+0xac>
 160:	1813883a 	mov	r9,r3
 164:	3011883a 	mov	r8,r6
 168:	010000c4 	movi	r4,3
 16c:	49c00015 	stw	r7,0(r9)
 170:	423fff04 	addi	r8,r8,-4
 174:	4a400104 	addi	r9,r9,4
 178:	223ffc36 	bltu	r4,r8,16c <memset+0x80>
 17c:	313fff04 	addi	r4,r6,-4
 180:	2008d0ba 	srli	r4,r4,2
 184:	318000cc 	andi	r6,r6,3
 188:	21000044 	addi	r4,r4,1
 18c:	2109883a 	add	r4,r4,r4
 190:	2109883a 	add	r4,r4,r4
 194:	1907883a 	add	r3,r3,r4
 198:	30000a26 	beq	r6,zero,1c4 <memset+0xd8>
 19c:	198d883a 	add	r6,r3,r6
 1a0:	19400005 	stb	r5,0(r3)
 1a4:	18c00044 	addi	r3,r3,1
 1a8:	19bffd1e 	bne	r3,r6,1a0 <memset+0xb4>
 1ac:	f800283a 	ret
 1b0:	2007883a 	mov	r3,r4
 1b4:	303ff91e 	bne	r6,zero,19c <memset+0xb0>
 1b8:	00000206 	br	1c4 <memset+0xd8>
 1bc:	2007883a 	mov	r3,r4
 1c0:	003ff606 	br	19c <memset+0xb0>
 1c4:	f800283a 	ret

000001c8 <__call_exitprocs>:
 1c8:	00800034 	movhi	r2,0
 1cc:	10820804 	addi	r2,r2,2080
 1d0:	10800017 	ldw	r2,0(r2)
 1d4:	defff304 	addi	sp,sp,-52
 1d8:	df000b15 	stw	fp,44(sp)
 1dc:	d8800015 	stw	r2,0(sp)
 1e0:	10805204 	addi	r2,r2,328
 1e4:	dd400815 	stw	r21,32(sp)
 1e8:	dfc00c15 	stw	ra,48(sp)
 1ec:	ddc00a15 	stw	r23,40(sp)
 1f0:	dd800915 	stw	r22,36(sp)
 1f4:	dd000715 	stw	r20,28(sp)
 1f8:	dcc00615 	stw	r19,24(sp)
 1fc:	dc800515 	stw	r18,20(sp)
 200:	dc400415 	stw	r17,16(sp)
 204:	dc000315 	stw	r16,12(sp)
 208:	d9000115 	stw	r4,4(sp)
 20c:	2839883a 	mov	fp,r5
 210:	d8800215 	stw	r2,8(sp)
 214:	057fffc4 	movi	r21,-1
 218:	d8800017 	ldw	r2,0(sp)
 21c:	ddc00217 	ldw	r23,8(sp)
 220:	14805217 	ldw	r18,328(r2)
 224:	90001726 	beq	r18,zero,284 <__call_exitprocs+0xbc>
 228:	94400117 	ldw	r17,4(r18)
 22c:	8c3fffc4 	addi	r16,r17,-1
 230:	80001116 	blt	r16,zero,278 <__call_exitprocs+0xb0>
 234:	8c400044 	addi	r17,r17,1
 238:	8427883a 	add	r19,r16,r16
 23c:	8c63883a 	add	r17,r17,r17
 240:	95802204 	addi	r22,r18,136
 244:	9ce7883a 	add	r19,r19,r19
 248:	8c63883a 	add	r17,r17,r17
 24c:	b4e7883a 	add	r19,r22,r19
 250:	9463883a 	add	r17,r18,r17
 254:	e0001726 	beq	fp,zero,2b4 <__call_exitprocs+0xec>
 258:	8c87c83a 	sub	r3,r17,r18
 25c:	b0c7883a 	add	r3,r22,r3
 260:	18c01e17 	ldw	r3,120(r3)
 264:	1f001326 	beq	r3,fp,2b4 <__call_exitprocs+0xec>
 268:	843fffc4 	addi	r16,r16,-1
 26c:	9cffff04 	addi	r19,r19,-4
 270:	8c7fff04 	addi	r17,r17,-4
 274:	857ff71e 	bne	r16,r21,254 <__call_exitprocs+0x8c>
 278:	00800034 	movhi	r2,0
 27c:	10800004 	addi	r2,r2,0
 280:	10002a1e 	bne	r2,zero,32c <__call_exitprocs+0x164>
 284:	dfc00c17 	ldw	ra,48(sp)
 288:	df000b17 	ldw	fp,44(sp)
 28c:	ddc00a17 	ldw	r23,40(sp)
 290:	dd800917 	ldw	r22,36(sp)
 294:	dd400817 	ldw	r21,32(sp)
 298:	dd000717 	ldw	r20,28(sp)
 29c:	dcc00617 	ldw	r19,24(sp)
 2a0:	dc800517 	ldw	r18,20(sp)
 2a4:	dc400417 	ldw	r17,16(sp)
 2a8:	dc000317 	ldw	r16,12(sp)
 2ac:	dec00d04 	addi	sp,sp,52
 2b0:	f800283a 	ret
 2b4:	91000117 	ldw	r4,4(r18)
 2b8:	88c00017 	ldw	r3,0(r17)
 2bc:	213fffc4 	addi	r4,r4,-1
 2c0:	24001526 	beq	r4,r16,318 <__call_exitprocs+0x150>
 2c4:	88000015 	stw	zero,0(r17)
 2c8:	183fe726 	beq	r3,zero,268 <__call_exitprocs+0xa0>
 2cc:	00800044 	movi	r2,1
 2d0:	1408983a 	sll	r4,r2,r16
 2d4:	91406217 	ldw	r5,392(r18)
 2d8:	95000117 	ldw	r20,4(r18)
 2dc:	214a703a 	and	r5,r4,r5
 2e0:	28000b26 	beq	r5,zero,310 <__call_exitprocs+0x148>
 2e4:	91406317 	ldw	r5,396(r18)
 2e8:	2148703a 	and	r4,r4,r5
 2ec:	20000c1e 	bne	r4,zero,320 <__call_exitprocs+0x158>
 2f0:	99400017 	ldw	r5,0(r19)
 2f4:	d9000117 	ldw	r4,4(sp)
 2f8:	183ee83a 	callr	r3
 2fc:	90c00117 	ldw	r3,4(r18)
 300:	1d3fc51e 	bne	r3,r20,218 <__call_exitprocs+0x50>
 304:	b8c00017 	ldw	r3,0(r23)
 308:	1cbfd726 	beq	r3,r18,268 <__call_exitprocs+0xa0>
 30c:	003fc206 	br	218 <__call_exitprocs+0x50>
 310:	183ee83a 	callr	r3
 314:	003ff906 	br	2fc <__call_exitprocs+0x134>
 318:	94000115 	stw	r16,4(r18)
 31c:	003fea06 	br	2c8 <__call_exitprocs+0x100>
 320:	99000017 	ldw	r4,0(r19)
 324:	183ee83a 	callr	r3
 328:	003ff406 	br	2fc <__call_exitprocs+0x134>
 32c:	90c00117 	ldw	r3,4(r18)
 330:	1800071e 	bne	r3,zero,350 <__call_exitprocs+0x188>
 334:	90c00017 	ldw	r3,0(r18)
 338:	18000926 	beq	r3,zero,360 <__call_exitprocs+0x198>
 33c:	9009883a 	mov	r4,r18
 340:	b8c00015 	stw	r3,0(r23)
 344:	00000000 	call	0 <_start>
 348:	bc800017 	ldw	r18,0(r23)
 34c:	003fb506 	br	224 <__call_exitprocs+0x5c>
 350:	90c00017 	ldw	r3,0(r18)
 354:	902f883a 	mov	r23,r18
 358:	1825883a 	mov	r18,r3
 35c:	003fb106 	br	224 <__call_exitprocs+0x5c>
 360:	0007883a 	mov	r3,zero
 364:	003ffb06 	br	354 <__call_exitprocs+0x18c>

00000368 <__fake_fini>:
 368:	f800283a 	ret

0000036c <_exit>:
 36c:	defffe04 	addi	sp,sp,-8
 370:	dc000015 	stw	r16,0(sp)
 374:	dfc00115 	stw	ra,4(sp)
 378:	2021883a 	mov	r16,r4
 37c:	00003680 	call	368 <__fake_fini>
 380:	8005883a 	mov	r2,r16
 384:	003fff06 	br	384 <_exit+0x18>
 388:	dfc00117 	ldw	ra,4(sp)
 38c:	dc000017 	ldw	r16,0(sp)
 390:	dec00204 	addi	sp,sp,8
 394:	f800283a 	ret

00000398 <main>:
// declare the sumthree function
int sumthree(int a, int b, int c);

int main() {
 398:	defffa04 	addi	sp,sp,-24
 39c:	dfc00515 	stw	ra,20(sp)
 3a0:	df000415 	stw	fp,16(sp)
 3a4:	df000404 	addi	fp,sp,16
   int z;
   int a=2;
 3a8:	00800084 	movi	r2,2
 3ac:	e0bffc15 	stw	r2,-16(fp)
   int b=3;
 3b0:	008000c4 	movi	r2,3
 3b4:	e0bffd15 	stw	r2,-12(fp)
   int c=4;
 3b8:	00800104 	movi	r2,4
 3bc:	e0bffe15 	stw	r2,-8(fp)
   z = sumthree(a,b,c);
 3c0:	e13ffc17 	ldw	r4,-16(fp)
 3c4:	e17ffd17 	ldw	r5,-12(fp)
 3c8:	e1bffe17 	ldw	r6,-8(fp)
 3cc:	00000300 	call	30 <sumthree>
 3d0:	e0bfff15 	stw	r2,-4(fp)
   // if you run in a debugger, r2 should be 9 at this point
   
   return 0;
 3d4:	0005883a 	mov	r2,zero
}
 3d8:	e037883a 	mov	sp,fp
 3dc:	dfc00117 	ldw	ra,4(sp)
 3e0:	df000017 	ldw	fp,0(sp)
 3e4:	dec00204 	addi	sp,sp,8
 3e8:	f800283a 	ret

000003ec <sumtwo>:

int sumtwo(int a, int b) {
 3ec:	defffd04 	addi	sp,sp,-12
 3f0:	df000215 	stw	fp,8(sp)
 3f4:	df000204 	addi	fp,sp,8
 3f8:	e13ffe15 	stw	r4,-8(fp)
 3fc:	e17fff15 	stw	r5,-4(fp)
   return a+b;
 400:	e0fffe17 	ldw	r3,-8(fp)
 404:	e0bfff17 	ldw	r2,-4(fp)
 408:	1885883a 	add	r2,r3,r2
   
 40c:	e037883a 	mov	sp,fp
 410:	df000017 	ldw	fp,0(sp)
 414:	dec00104 	addi	sp,sp,4
 418:	f800283a 	ret
