
C:/Users/lianne/Desktop/a3q2/main.elf:     file format elf32-littlenios2
C:/Users/lianne/Desktop/a3q2/main.elf
architecture: nios2, flags 0x00000112:
EXEC_P, HAS_SYMS, D_PAGED
start address 0x00000000

Program Header:
    LOAD off    0x00001000 vaddr 0x00000000 paddr 0x00000000 align 2**12
         filesz 0x00000828 memsz 0x00000828 flags rwx

Sections:
Idx Name          Size      VMA       LMA       File off  Algn
  0 .text         0000041c  00000000  00000000  00001000  2**3
                  CONTENTS, ALLOC, LOAD, READONLY, CODE
  1 .rodata       00000004  0000041c  0000041c  0000141c  2**2
                  CONTENTS, ALLOC, LOAD, READONLY, DATA
  2 .data         00000400  00000420  00000420  00001420  2**2
                  CONTENTS, ALLOC, LOAD, DATA
  3 .sdata        00000008  00000820  00000820  00001820  2**2
                  CONTENTS, ALLOC, LOAD, DATA, SMALL_DATA
  4 .stab         000000cc  00000000  00000000  00001828  2**2
                  CONTENTS, READONLY, DEBUGGING
  5 .stabstr      00000029  00000000  00000000  000018f4  2**0
                  CONTENTS, READONLY, DEBUGGING
  6 .comment      00000023  00000000  00000000  0000191d  2**0
                  CONTENTS, READONLY
  7 .debug_aranges 00000120  00000000  00000000  00001940  2**3
                  CONTENTS, READONLY, DEBUGGING
  8 .debug_info   00002228  00000000  00000000  00001a60  2**0
                  CONTENTS, READONLY, DEBUGGING
  9 .debug_abbrev 00000866  00000000  00000000  00003c88  2**0
                  CONTENTS, READONLY, DEBUGGING
 10 .debug_line   00000b09  00000000  00000000  000044ee  2**0
                  CONTENTS, READONLY, DEBUGGING
 11 .debug_frame  00000158  00000000  00000000  00004ff8  2**2
                  CONTENTS, READONLY, DEBUGGING
 12 .debug_str    000008b0  00000000  00000000  00005150  2**0
                  CONTENTS, READONLY, DEBUGGING
 13 .debug_loc    000004ef  00000000  00000000  00005a00  2**0
                  CONTENTS, READONLY, DEBUGGING
 14 .debug_ranges 00000030  00000000  00000000  00005eef  2**0
                  CONTENTS, READONLY, DEBUGGING
SYMBOL TABLE:
00000000 l    d  .text	00000000 .text
0000041c l    d  .rodata	00000000 .rodata
00000420 l    d  .data	00000000 .data
00000820 l    d  .sdata	00000000 .sdata
00000000 l    d  .stab	00000000 .stab
00000000 l    d  .stabstr	00000000 .stabstr
00000000 l    d  .comment	00000000 .comment
00000000 l    d  .debug_aranges	00000000 .debug_aranges
00000000 l    d  .debug_info	00000000 .debug_info
00000000 l    d  .debug_abbrev	00000000 .debug_abbrev
00000000 l    d  .debug_line	00000000 .debug_line
00000000 l    d  .debug_frame	00000000 .debug_frame
00000000 l    d  .debug_str	00000000 .debug_str
00000000 l    d  .debug_loc	00000000 .debug_loc
00000000 l    d  .debug_ranges	00000000 .debug_ranges
00000000 l    df *ABS*	00000000 main.c
00000000 l    df *ABS*	00000000 nosys_crt0.c
00000000 l    df *ABS*	00000000 _zero_bss.c
00000000 l    df *ABS*	00000000 exit.c
00000000 l    df *ABS*	00000000 impure.c
00000420 l     O .data	00000400 impure_data
00000000 l    df *ABS*	00000000 memset.c
00000000 l    df *ABS*	00000000 __call_atexit.c
00000000 l    df *ABS*	00000000 nosys_exit.c
00000000 l    df *ABS*	00000000 
00000420 g       .rodata	00000000 _nasys_data_destination
00000000 g       *ABS*	00000000 nasys_data_mem
0000006c g     F .text	00000004 __fake_init
0000041c g       .rodata	00000000 _etext
00008810 g       *ABS*	00000000 _gp
0000041c g       .rodata	00000000 _ctors_end
00000070 g     F .text	00000040 __start_2
00000828 g       .rodata	00000000 _nasys_data_source_end
00000000 g       *ABS*	00000000 nasys_program_mem
0000041c g       .rodata	00000000 _dtors_end
00000820 g     O .sdata	00000004 _global_impure_ptr
00000828 g       .sdata	00000000 _nasys_uninitialized_storage
000000b0 g     F .text	00000004 _zero_bss
0000006c  w    F .text	00000004 _init
00000420 g       .rodata	00000000 _nasys_rodata_end
00000420 g       .rodata	00000000 _nasys_data_source
000003ec g     F .text	00000030 sumtwo
000001c8 g     F .text	000001a0 __call_exitprocs
00000828 g       .sdata	00000000 _bss
00000000 g     F .text	00000000 _start
00000030 g       .text	00000000 sumthree
00000368 g     F .text	00000004 __fake_fini
00000820 g       .data	00000000 _nasys_data_destination_end
00000828 g       .sdata	00000000 __bss_start
000000ec g     F .text	000000dc memset
00000398 g     F .text	00000054 main
00000368  w    F .text	00000004 _fini
00000824 g     O .sdata	00000004 _impure_ptr
0000041c g       .rodata	00000000 _dtors_begin
00000420 g       .data	00000000 _data
00800000 g       *ABS*	00000000 nasys_stack_top
00000828 g       .sdata	00000000 _edata
00000828 g       .sdata	00000000 _end
000000b4 g     F .text	00000038 exit
0000041c g       .rodata	00000000 _nasys_rodata
0000036c g     F .text	0000002c _exit
00000828 g       .sdata	00000000 _nasys_uninitialized_storage_end
0000041c g       .rodata	00000000 _ctors_begin
00000000  w      *UND*	00000000 free



Disassembly of section .text:

00000000 <_start>:
   0:	06c02034 	movhi	sp,128
   4:	dec00004 	addi	sp,sp,0
   8:	def6303a 	nor	sp,sp,sp
   c:	dec001d4 	ori	sp,sp,7
  10:	def6303a 	nor	sp,sp,sp
  14:	06800074 	movhi	gp,1
  18:	d6a20404 	addi	gp,gp,-30704
  1c:	06000034 	movhi	et,0
  20:	c6020a04 	addi	et,et,2088
  24:	00800034 	movhi	r2,0
  28:	10801c04 	addi	r2,r2,112
  2c:	1000683a 	jmp	r2

00000030 <sumthree>:
.text
.global sumthree
sumthree:

addi sp, sp, -24;
  30:	defffa04 	addi	sp,sp,-24

stw ra, 20(sp);
  34:	dfc00515 	stw	ra,20(sp)
stw fp, 16(sp);
  38:	df000415 	stw	fp,16(sp)
addi fp, fp, -24;
  3c:	e73ffa04 	addi	fp,fp,-24
stw r4, 12(sp);
  40:	d9000315 	stw	r4,12(sp)
stw r5, 8(sp);
  44:	d9400215 	stw	r5,8(sp)
stw r6, 4(sp);
  48:	d9800115 	stw	r6,4(sp)


call sumtwo
  4c:	00003ec0 	call	3ec <sumtwo>

stw r2, 0(sp);
  50:	d8800015 	stw	r2,0(sp)
stw r4, 0(sp);
  54:	d9000015 	stw	r4,0(sp)
stw r5, 4(sp);
  58:	d9400115 	stw	r5,4(sp)

call sumtwo
  5c:	00003ec0 	call	3ec <sumtwo>

stw r2, 0(sp);
  60:	d8800015 	stw	r2,0(sp)

ldw ra, 20(sp);
  64:	dfc00517 	ldw	ra,20(sp)

ret
  68:	f800283a 	ret

0000006c <__fake_init>:
  6c:	f800283a 	ret

00000070 <__start_2>:
  70:	01000034 	movhi	r4,0
  74:	21020a04 	addi	r4,r4,2088
  78:	01800034 	movhi	r6,0
  7c:	31820a04 	addi	r6,r6,2088
  80:	deffff04 	addi	sp,sp,-4
  84:	310dc83a 	sub	r6,r6,r4
  88:	000b883a 	mov	r5,zero
  8c:	dfc00015 	stw	ra,0(sp)
  90:	00000b00 	call	b0 <_zero_bss>
  94:	000006c0 	call	6c <__fake_init>
  98:	0009883a 	mov	r4,zero
  9c:	000b883a 	mov	r5,zero
  a0:	000d883a 	mov	r6,zero
  a4:	00003980 	call	398 <main>
  a8:	1009883a 	mov	r4,r2
  ac:	00000b40 	call	b4 <exit>

000000b0 <_zero_bss>:
  b0:	00000ec1 	jmpi	ec <memset>

000000b4 <exit>:
  b4:	defffe04 	addi	sp,sp,-8
  b8:	000b883a 	mov	r5,zero
  bc:	dc000015 	stw	r16,0(sp)
  c0:	dfc00115 	stw	ra,4(sp)
  c4:	2021883a 	mov	r16,r4
  c8:	00001c80 	call	1c8 <__call_exitprocs>
  cc:	00800034 	movhi	r2,0
  d0:	10820804 	addi	r2,r2,2080
  d4:	11000017 	ldw	r4,0(r2)
  d8:	20800f17 	ldw	r2,60(r4)
  dc:	10000126 	beq	r2,zero,e4 <exit+0x30>
  e0:	103ee83a 	callr	r2
  e4:	8009883a 	mov	r4,r16
  e8:	000036c0 	call	36c <_exit>

000000ec <memset>:
  ec:	00c000c4 	movi	r3,3
  f0:	2005883a 	mov	r2,r4
  f4:	29403fcc 	andi	r5,r5,255
  f8:	19802d2e 	bgeu	r3,r6,1b0 <memset+0xc4>
  fc:	20c6703a 	and	r3,r4,r3
 100:	18002e1e 	bne	r3,zero,1bc <memset+0xd0>
 104:	2806923a 	slli	r3,r5,8
 108:	010003c4 	movi	r4,15
 10c:	3011883a 	mov	r8,r6
 110:	1946b03a 	or	r3,r3,r5
 114:	180e943a 	slli	r7,r3,16
 118:	38ceb03a 	or	r7,r7,r3
 11c:	1007883a 	mov	r3,r2
 120:	21800f2e 	bgeu	r4,r6,160 <memset+0x74>
 124:	19c00015 	stw	r7,0(r3)
 128:	19c00115 	stw	r7,4(r3)
 12c:	19c00215 	stw	r7,8(r3)
 130:	19c00315 	stw	r7,12(r3)
 134:	423ffc04 	addi	r8,r8,-16
 138:	18c00404 	addi	r3,r3,16
 13c:	223ff936 	bltu	r4,r8,124 <memset+0x38>
 140:	30fffc04 	addi	r3,r6,-16
 144:	1806d13a 	srli	r3,r3,4
 148:	318003cc 	andi	r6,r6,15
 14c:	010000c4 	movi	r4,3
 150:	18c00044 	addi	r3,r3,1
 154:	1806913a 	slli	r3,r3,4
 158:	10c7883a 	add	r3,r2,r3
 15c:	21800e2e 	bgeu	r4,r6,198 <memset+0xac>
 160:	1813883a 	mov	r9,r3
 164:	3011883a 	mov	r8,r6
 168:	010000c4 	movi	r4,3
 16c:	49c00015 	stw	r7,0(r9)
 170:	423fff04 	addi	r8,r8,-4
 174:	4a400104 	addi	r9,r9,4
 178:	223ffc36 	bltu	r4,r8,16c <memset+0x80>
 17c:	313fff04 	addi	r4,r6,-4
 180:	2008d0ba 	srli	r4,r4,2
 184:	318000cc 	andi	r6,r6,3
 188:	21000044 	addi	r4,r4,1
 18c:	2109883a 	add	r4,r4,r4
 190:	2109883a 	add	r4,r4,r4
 194:	1907883a 	add	r3,r3,r4
 198:	30000a26 	beq	r6,zero,1c4 <memset+0xd8>
 19c:	198d883a 	add	r6,r3,r6
 1a0:	19400005 	stb	r5,0(r3)
 1a4:	18c00044 	addi	r3,r3,1
 1a8:	19bffd1e 	bne	r3,r6,1a0 <memset+0xb4>
 1ac:	f800283a 	ret
 1b0:	2007883a 	mov	r3,r4
 1b4:	303ff91e 	bne	r6,zero,19c <memset+0xb0>
 1b8:	00000206 	br	1c4 <memset+0xd8>
 1bc:	2007883a 	mov	r3,r4
 1c0:	003ff606 	br	19c <memset+0xb0>
 1c4:	f800283a 	ret

000001c8 <__call_exitprocs>:
 1c8:	00800034 	movhi	r2,0
 1cc:	10820804 	addi	r2,r2,2080
 1d0:	10800017 	ldw	r2,0(r2)
 1d4:	defff304 	addi	sp,sp,-52
 1d8:	df000b15 	stw	fp,44(sp)
 1dc:	d8800015 	stw	r2,0(sp)
 1e0:	10805204 	addi	r2,r2,328
 1e4:	dd400815 	stw	r21,32(sp)
 1e8:	dfc00c15 	stw	ra,48(sp)
 1ec:	ddc00a15 	stw	r23,40(sp)
 1f0:	dd800915 	stw	r22,36(sp)
 1f4:	dd000715 	stw	r20,28(sp)
 1f8:	dcc00615 	stw	r19,24(sp)
 1fc:	dc800515 	stw	r18,20(sp)
 200:	dc400415 	stw	r17,16(sp)
 204:	dc000315 	stw	r16,12(sp)
 208:	d9000115 	stw	r4,4(sp)
 20c:	2839883a 	mov	fp,r5
 210:	d8800215 	stw	r2,8(sp)
 214:	057fffc4 	movi	r21,-1
 218:	d8800017 	ldw	r2,0(sp)
 21c:	ddc00217 	ldw	r23,8(sp)
 220:	14805217 	ldw	r18,328(r2)
 224:	90001726 	beq	r18,zero,284 <__call_exitprocs+0xbc>
 228:	94400117 	ldw	r17,4(r18)
 22c:	8c3fffc4 	addi	r16,r17,-1
 230:	80001116 	blt	r16,zero,278 <__call_exitprocs+0xb0>
 234:	8c400044 	addi	r17,r17,1
 238:	8427883a 	add	r19,r16,r16
 23c:	8c63883a 	add	r17,r17,r17
 240:	95802204 	addi	r22,r18,136
 244:	9ce7883a 	add	r19,r19,r19
 248:	8c63883a 	add	r17,r17,r17
 24c:	b4e7883a 	add	r19,r22,r19
 250:	9463883a 	add	r17,r18,r17
 254:	e0001726 	beq	fp,zero,2b4 <__call_exitprocs+0xec>
 258:	8c87c83a 	sub	r3,r17,r18
 25c:	b0c7883a 	add	r3,r22,r3
 260:	18c01e17 	ldw	r3,120(r3)
 264:	1f001326 	beq	r3,fp,2b4 <__call_exitprocs+0xec>
 268:	843fffc4 	addi	r16,r16,-1
 26c:	9cffff04 	addi	r19,r19,-4
 270:	8c7fff04 	addi	r17,r17,-4
 274:	857ff71e 	bne	r16,r21,254 <__call_exitprocs+0x8c>
 278:	00800034 	movhi	r2,0
 27c:	10800004 	addi	r2,r2,0
 280:	10002a1e 	bne	r2,zero,32c <__call_exitprocs+0x164>
 284:	dfc00c17 	ldw	ra,48(sp)
 288:	df000b17 	ldw	fp,44(sp)
 28c:	ddc00a17 	ldw	r23,40(sp)
 290:	dd800917 	ldw	r22,36(sp)
 294:	dd400817 	ldw	r21,32(sp)
 298:	dd000717 	ldw	r20,28(sp)
 29c:	dcc00617 	ldw	r19,24(sp)
 2a0:	dc800517 	ldw	r18,20(sp)
 2a4:	dc400417 	ldw	r17,16(sp)
 2a8:	dc000317 	ldw	r16,12(sp)
 2ac:	dec00d04 	addi	sp,sp,52
 2b0:	f800283a 	ret
 2b4:	91000117 	ldw	r4,4(r18)
 2b8:	88c00017 	ldw	r3,0(r17)
 2bc:	213fffc4 	addi	r4,r4,-1
 2c0:	24001526 	beq	r4,r16,318 <__call_exitprocs+0x150>
 2c4:	88000015 	stw	zero,0(r17)
 2c8:	183fe726 	beq	r3,zero,268 <__call_exitprocs+0xa0>
 2cc:	00800044 	movi	r2,1
 2d0:	1408983a 	sll	r4,r2,r16
 2d4:	91406217 	ldw	r5,392(r18)
 2d8:	95000117 	ldw	r20,4(r18)
 2dc:	214a703a 	and	r5,r4,r5
 2e0:	28000b26 	beq	r5,zero,310 <__call_exitprocs+0x148>
 2e4:	91406317 	ldw	r5,396(r18)
 2e8:	2148703a 	and	r4,r4,r5
 2ec:	20000c1e 	bne	r4,zero,320 <__call_exitprocs+0x158>
 2f0:	99400017 	ldw	r5,0(r19)
 2f4:	d9000117 	ldw	r4,4(sp)
 2f8:	183ee83a 	callr	r3
 2fc:	90c00117 	ldw	r3,4(r18)
 300:	1d3fc51e 	bne	r3,r20,218 <__call_exitprocs+0x50>
 304:	b8c00017 	ldw	r3,0(r23)
 308:	1cbfd726 	beq	r3,r18,268 <__call_exitprocs+0xa0>
 30c:	003fc206 	br	218 <__call_exitprocs+0x50>
 310:	183ee83a 	callr	r3
 314:	003ff906 	br	2fc <__call_exitprocs+0x134>
 318:	94000115 	stw	r16,4(r18)
 31c:	003fea06 	br	2c8 <__call_exitprocs+0x100>
 320:	99000017 	ldw	r4,0(r19)
 324:	183ee83a 	callr	r3
 328:	003ff406 	br	2fc <__call_exitprocs+0x134>
 32c:	90c00117 	ldw	r3,4(r18)
 330:	1800071e 	bne	r3,zero,350 <__call_exitprocs+0x188>
 334:	90c00017 	ldw	r3,0(r18)
 338:	18000926 	beq	r3,zero,360 <__call_exitprocs+0x198>
 33c:	9009883a 	mov	r4,r18
 340:	b8c00015 	stw	r3,0(r23)
 344:	00000000 	call	0 <_start>
 348:	bc800017 	ldw	r18,0(r23)
 34c:	003fb506 	br	224 <__call_exitprocs+0x5c>
 350:	90c00017 	ldw	r3,0(r18)
 354:	902f883a 	mov	r23,r18
 358:	1825883a 	mov	r18,r3
 35c:	003fb106 	br	224 <__call_exitprocs+0x5c>
 360:	0007883a 	mov	r3,zero
 364:	003ffb06 	br	354 <__call_exitprocs+0x18c>

00000368 <__fake_fini>:
 368:	f800283a 	ret

0000036c <_exit>:
 36c:	defffe04 	addi	sp,sp,-8
 370:	dc000015 	stw	r16,0(sp)
 374:	dfc00115 	stw	ra,4(sp)
 378:	2021883a 	mov	r16,r4
 37c:	00003680 	call	368 <__fake_fini>
 380:	8005883a 	mov	r2,r16
 384:	003fff06 	br	384 <_exit+0x18>
 388:	dfc00117 	ldw	ra,4(sp)
 38c:	dc000017 	ldw	r16,0(sp)
 390:	dec00204 	addi	sp,sp,8
 394:	f800283a 	ret

00000398 <main>:
// declare the sumthree function
int sumthree(int a, int b, int c);

int main() {
 398:	defffa04 	addi	sp,sp,-24
 39c:	dfc00515 	stw	ra,20(sp)
 3a0:	df000415 	stw	fp,16(sp)
 3a4:	df000404 	addi	fp,sp,16
   int z;
   int a=2;
 3a8:	00800084 	movi	r2,2
 3ac:	e0bffc15 	stw	r2,-16(fp)
   int b=3;
 3b0:	008000c4 	movi	r2,3
 3b4:	e0bffd15 	stw	r2,-12(fp)
   int c=4;
 3b8:	00800104 	movi	r2,4
 3bc:	e0bffe15 	stw	r2,-8(fp)
   z = sumthree(a,b,c);
 3c0:	e13ffc17 	ldw	r4,-16(fp)
 3c4:	e17ffd17 	ldw	r5,-12(fp)
 3c8:	e1bffe17 	ldw	r6,-8(fp)
 3cc:	00000300 	call	30 <sumthree>
 3d0:	e0bfff15 	stw	r2,-4(fp)
   // if you run in a debugger, r2 should be 9 at this point
   
   return 0;
 3d4:	0005883a 	mov	r2,zero
}
 3d8:	e037883a 	mov	sp,fp
 3dc:	dfc00117 	ldw	ra,4(sp)
 3e0:	df000017 	ldw	fp,0(sp)
 3e4:	dec00204 	addi	sp,sp,8
 3e8:	f800283a 	ret

000003ec <sumtwo>:

int sumtwo(int a, int b) {
 3ec:	defffd04 	addi	sp,sp,-12
 3f0:	df000215 	stw	fp,8(sp)
 3f4:	df000204 	addi	fp,sp,8
 3f8:	e13ffe15 	stw	r4,-8(fp)
 3fc:	e17fff15 	stw	r5,-4(fp)
   return a+b;
 400:	e0fffe17 	ldw	r3,-8(fp)
 404:	e0bfff17 	ldw	r2,-4(fp)
 408:	1885883a 	add	r2,r3,r2
   
 40c:	e037883a 	mov	sp,fp
 410:	df000017 	ldw	fp,0(sp)
 414:	dec00104 	addi	sp,sp,4
 418:	f800283a 	ret

Disassembly of section .rodata:

0000041c <_ctors_begin>:
 41c:	00000043 	ldbu	zero,1(zero)

Disassembly of section .data:

00000420 <_data>:
 420:	00000000 	call	0 <nasys_data_mem>
 424:	0000070c 	andi	zero,zero,28
 428:	00000768 	cmpgeui	zero,zero,29
 42c:	000007c4 	movi	zero,31
	...
 454:	0000041c 	xori	zero,zero,16
	...
 4c4:	00000001 	jmpi	0 <nasys_data_mem>
 4c8:	00000000 	call	0 <nasys_data_mem>
 4cc:	abcd330e 	bge	r21,r15,399c <_nasys_data_source_end+0x3174>
 4d0:	e66d1234 	orhi	bt,fp,46152
 4d4:	0005deec 	andhi	zero,zero,6011
 4d8:	0000000b 	ldhu	zero,0(zero)
	...

Disassembly of section .sdata:

00000820 <_global_impure_ptr>:
 820:	00000420 	cmpeqi	zero,zero,16

00000824 <_impure_ptr>:
 824:	00000420 	cmpeqi	zero,zero,16

Disassembly of section .stab:

00000000 <.stab>:
   0:	00000001 	jmpi	0 <nasys_data_mem>
   4:	00100000 	call	10000 <_gp+0x77f0>
   8:	00000029 	0x29
   c:	00000001 	jmpi	0 <nasys_data_mem>
  10:	00000064 	muli	zero,zero,1
  14:	00000030 	cmpltui	zero,zero,0
  18:	00000000 	call	0 <nasys_data_mem>
  1c:	00050044 	movi	zero,5121
  20:	00000030 	cmpltui	zero,zero,0
  24:	00000000 	call	0 <nasys_data_mem>
  28:	00070044 	movi	zero,7169
  2c:	00000034 	movhi	zero,0
.text
.global sumthree
sumthree:

addi sp, sp, -24;
  30:	00000000 	call	0 <nasys_data_mem>

stw ra, 20(sp);
  34:	00080044 	movi	zero,8193
stw fp, 16(sp);
  38:	00000038 	rdprs	zero,zero,0
addi fp, fp, -24;
  3c:	00000000 	call	0 <nasys_data_mem>
stw r4, 12(sp);
  40:	00090044 	movi	zero,9217
stw r5, 8(sp);
  44:	0000003c 	xorhi	zero,zero,0
stw r6, 4(sp);
  48:	00000000 	call	0 <nasys_data_mem>


call sumtwo
  4c:	000a0044 	movi	zero,10241

stw r2, 0(sp);
  50:	00000040 	call	4 <nasys_data_mem+0x4>
stw r4, 0(sp);
  54:	00000000 	call	0 <nasys_data_mem>
stw r5, 4(sp);
  58:	000b0044 	movi	zero,11265

call sumtwo
  5c:	00000044 	movi	zero,1

stw r2, 0(sp);
  60:	00000000 	call	0 <nasys_data_mem>

ldw ra, 20(sp);
  64:	000c0044 	movi	zero,12289

ret
  68:	00000048 	cmpgei	zero,zero,1
  6c:	00000000 	call	0 <nasys_data_mem>
  70:	000f0044 	movi	zero,15361
  74:	0000004c 	andi	zero,zero,1
  78:	00000000 	call	0 <nasys_data_mem>
  7c:	00110044 	movi	zero,17409
  80:	00000050 	cmplti	zero,zero,1
  84:	00000000 	call	0 <nasys_data_mem>
  88:	00120044 	movi	zero,18433
  8c:	00000054 	movui	zero,1
  90:	00000000 	call	0 <nasys_data_mem>
  94:	00130044 	movi	zero,19457
  98:	00000058 	cmpnei	zero,zero,1
  9c:	00000000 	call	0 <nasys_data_mem>
  a0:	00150044 	movi	zero,21505
  a4:	0000005c 	xori	zero,zero,1
  a8:	00000000 	call	0 <nasys_data_mem>
  ac:	00170044 	movi	zero,23553
  b0:	00000060 	cmpeqi	zero,zero,1
  b4:	00000000 	call	0 <nasys_data_mem>
  b8:	00190044 	movi	zero,25601
  bc:	00000064 	muli	zero,zero,1
  c0:	00000000 	call	0 <nasys_data_mem>
  c4:	001b0044 	movi	zero,27649
  c8:	00000068 	cmpgeui	zero,zero,1

Disassembly of section .stabstr:

00000000 <.stabstr>:
   0:	2f3a4300 	call	2f3a430 <nasys_stack_top+0x273a430>
   4:	72657355 	stw	r9,-27187(r14)
   8:	696c2f73 	initd	-20291(r13)
   c:	656e6e61 	0x656e6e61
  10:	7365442f 	ldhio	r13,-27376(r14)
  14:	706f746b 	ldhuio	at,-16943(r14)
  18:	7133612f 	ldhio	r4,-12924(r14)
  1c:	75732f32 	custom	188,c25,r14,c21
  20:	7268746d 	sthio	r9,-24111(r14)
  24:	732e6565 	stbio	r12,-18027(r14)
	...

Disassembly of section .comment:

00000000 <.comment>:
   0:	3a434347 	ldb	r9,3341(r7)
   4:	6c412820 	cmpeqi	r17,r13,1184
   8:	61726574 	orhi	r5,r12,51605
   c:	2e333120 	cmpeqi	et,r5,-13116
  10:	75422031 	0x75422031
  14:	20646c69 	0x20646c69
  18:	29323631 	0x29323631
  1c:	372e3420 	cmpeqi	fp,r6,-18224
  20:	Address 0x00000020 is out of bounds.


Disassembly of section .debug_aranges:

00000000 <.debug_aranges>:
   0:	0000001c 	xori	zero,zero,0
   4:	00000002 	0x2
   8:	00040000 	call	4000 <_nasys_data_source_end+0x37d8>
	...
  14:	00000030 	cmpltui	zero,zero,0
	...
  20:	00000024 	muli	zero,zero,0
  24:	00ec0002 	0xec0002
  28:	00040000 	call	4000 <_nasys_data_source_end+0x37d8>
  2c:	00000000 	call	0 <nasys_data_mem>
.text
.global sumthree
sumthree:

addi sp, sp, -24;
  30:	00000398 	cmpnei	zero,zero,14

stw ra, 20(sp);
  34:	00000054 	movui	zero,1
stw fp, 16(sp);
  38:	000003ec 	andhi	zero,zero,15
addi fp, fp, -24;
  3c:	00000030 	cmpltui	zero,zero,0
	...
stw r4, 12(sp);
stw r5, 8(sp);
stw r6, 4(sp);
  48:	0000001c 	xori	zero,zero,0


call sumtwo
  4c:	019a0002 	0x19a0002

stw r2, 0(sp);
  50:	00040000 	call	4000 <_nasys_data_source_end+0x37d8>
stw r4, 0(sp);
  54:	00000000 	call	0 <nasys_data_mem>
stw r5, 4(sp);
  58:	0000006c 	andhi	zero,zero,1

call sumtwo
  5c:	00000044 	movi	zero,1
	...

stw r2, 0(sp);

ldw ra, 20(sp);

ret
  68:	0000001c 	xori	zero,zero,0
  6c:	02c50002 	0x2c50002
  70:	00040000 	call	4000 <_nasys_data_source_end+0x37d8>
  74:	00000000 	call	0 <nasys_data_mem>
  78:	000000b0 	cmpltui	zero,zero,2
  7c:	00000004 	movi	zero,0
	...
  88:	0000001c 	xori	zero,zero,0
  8c:	03cf0002 	0x3cf0002
  90:	00040000 	call	4000 <_nasys_data_source_end+0x37d8>
  94:	00000000 	call	0 <nasys_data_mem>
  98:	000000b4 	movhi	zero,2
  9c:	00000038 	rdprs	zero,zero,0
	...
  a8:	00000014 	movui	zero,0
  ac:	0d620002 	0xd620002
  b0:	00040000 	call	4000 <_nasys_data_source_end+0x37d8>
	...
  c0:	0000001c 	xori	zero,zero,0
  c4:	169a0002 	0x169a0002
  c8:	00040000 	call	4000 <_nasys_data_source_end+0x37d8>
  cc:	00000000 	call	0 <nasys_data_mem>
  d0:	000000ec 	andhi	zero,zero,3
  d4:	000000dc 	xori	zero,zero,3
	...
  e0:	0000001c 	xori	zero,zero,0
  e4:	17b10002 	0x17b10002
  e8:	00040000 	call	4000 <_nasys_data_source_end+0x37d8>
  ec:	00000000 	call	0 <nasys_data_mem>
  f0:	000001c8 	cmpgei	zero,zero,7
  f4:	000001a0 	cmpeqi	zero,zero,6
	...
 100:	0000001c 	xori	zero,zero,0
 104:	21b80002 	0x21b80002
 108:	00040000 	call	4000 <_nasys_data_source_end+0x37d8>
 10c:	00000000 	call	0 <nasys_data_mem>
 110:	00000368 	cmpgeui	zero,zero,13
 114:	00000030 	cmpltui	zero,zero,0
	...

Disassembly of section .debug_info:

00000000 <.debug_info>:
       0:	000000e8 	cmpgeui	zero,zero,3
       4:	00000002 	0x2
       8:	01040000 	call	104000 <_gp+0xfb7f0>
	...
      14:	00000030 	cmpltui	zero,zero,0
      18:	2e2f2e2e 	bgeu	r5,et,ffffbcd4 <nasys_stack_top+0xff7fbcd4>
      1c:	2e2e2f2e 	bgeu	r5,et,ffffb8dc <nasys_stack_top+0xff7fb8dc>
      20:	2f2e2e2f 	ldhio	fp,-18248(r5)
      24:	2f637273 	initd	-29239(r5)
      28:	6c77656e 	bgeu	r13,r17,ffffddc1 <nasys_stack_top+0xff7fddc1>
      2c:	312d6269 	0x312d6269
.text
.global sumthree
sumthree:

addi sp, sp, -24;
      30:	2f36312e 	bgeu	r5,fp,ffffd8f8 <nasys_stack_top+0xff7fd8f8>

stw ra, 20(sp);
      34:	6762696c 	andhi	ea,r12,35237
stw fp, 16(sp);
      38:	73736f6c 	andhi	r13,r14,52669
addi fp, fp, -24;
      3c:	6f696e2f 	ldhio	ea,-23112(r13)
stw r4, 12(sp);
      40:	632f3273 	initd	-17207(r12)
stw r5, 8(sp);
      44:	2e307472 	custom	209,et,c5,c24
stw r6, 4(sp);
      48:	622f0053 	initda	-17407(r12)


call sumtwo
      4c:	646c6975 	stwio	r17,-20059(r12)

stw r2, 0(sp);
      50:	6277732f 	ldhio	r9,-8756(r12)
stw r4, 0(sp);
      54:	646c6975 	stwio	r17,-20059(r12)
stw r5, 4(sp);
      58:	2f4a532f 	ldhio	ea,10572(r5)

call sumtwo
      5c:	6867696e 	bgeu	r13,at,ffff9e05 <nasys_stack_top+0xff7f9e05>

stw r2, 0(sp);
      60:	2f796c74 	orhi	ea,r5,58801

ldw ra, 20(sp);
      64:	312e3331 	0x312e3331

ret
      68:	3236312f 	ldhio	r8,-10044(r6)
      6c:	32336c2f 	ldhio	r8,-12880(r6)
      70:	726f772f 	ldhio	r9,-16932(r14)
      74:	70692f6b 	ldhuio	at,-23363(r14)
      78:	706f732f 	ldhio	at,-16948(r14)
      7c:	70612f63 	ldbuio	at,-31555(r14)
      80:	6e672f70 	cmpltui	bt,r13,40125
      84:	55422f75 	stwio	r21,2237(r10)
      88:	2f444c49 	0x2f444c49
      8c:	34756e67 	ldbio	r17,-10823(r6)
      90:	75622f37 	ldwio	r21,-30532(r14)
      94:	2d646c69 	0x2d646c69
      98:	656e2d30 	cmpltui	r21,r12,47284
      9c:	62696c77 	ldwio	r9,-23119(r12)
      a0:	616d735f 	ldl	r5,-18995(r12)
      a4:	6e2e6c6c 	andhi	et,r13,47537
      a8:	32736f69 	0x32736f69
      ac:	666c652d 	sthio	bt,-20076(r12)
      b0:	3836692e 	bgeu	r7,zero,ffffda58 <nasys_stack_top+0xff7fda58>
      b4:	36772d36 	bltu	r6,bt,ffffdd6c <nasys_stack_top+0xff7fdd6c>
      b8:	696d2d34 	orhi	r5,r13,46260
      bc:	3377676e 	bgeu	r6,r13,ffffde5d <nasys_stack_top+0xff7fde5d>
      c0:	696e2f32 	custom	188,c23,c13,c5
      c4:	2d32736f 	ldhio	r20,-13875(r5)
      c8:	2f666c65 	stbio	ea,-26191(r5)
      cc:	6762696c 	andhi	ea,r12,35237
      d0:	73736f6c 	andhi	r13,r14,52669
      d4:	6f696e2f 	ldhio	ea,-23112(r13)
      d8:	47003273 	initd	201(r8)
      dc:	4120554e 	bge	r8,r4,ffff8235 <nasys_stack_top+0xff7f8235>
      e0:	2e322053 	initda	-14207(r5)
      e4:	352e3332 	custom	204,c23,c6,c20
      e8:	80010032 	custom	0,c0,r16,c0
      ec:	000000aa 	0xaa
      f0:	00140002 	0x140002
      f4:	01040000 	call	104000 <_gp+0xfb7f0>
      f8:	00000007 	ldb	zero,0(zero)
      fc:	00001301 	jmpi	130 <memset+0x44>
	...
     10c:	00006c00 	call	6c0 <_nasys_data_destination+0x2a0>
     110:	37010200 	call	3701020 <nasys_stack_top+0x2f01020>
     114:	01000000 	call	100000 <_gp+0xf77f0>
     118:	00007304 	movi	zero,460
     11c:	00039800 	call	3980 <_nasys_data_source_end+0x3158>
     120:	0003ec00 	call	3ec0 <_nasys_data_source_end+0x3698>
     124:	00000000 	call	0 <nasys_data_mem>
     128:	00730100 	call	73010 <_gp+0x6a800>
     12c:	7a030000 	call	7a03000 <nasys_stack_top+0x7203000>
     130:	73050100 	call	7305010 <nasys_stack_top+0x6b05010>
     134:	02000000 	call	200000 <_gp+0x1f77f0>
     138:	61037491 	0x61037491
     13c:	73060100 	call	7306010 <nasys_stack_top+0x6b06010>
     140:	02000000 	call	200000 <_gp+0x1f77f0>
     144:	62036891 	0x62036891
     148:	73070100 	call	7307010 <nasys_stack_top+0x6b07010>
     14c:	02000000 	call	200000 <_gp+0x1f77f0>
     150:	63036c91 	0x63036c91
     154:	73080100 	call	7308010 <nasys_stack_top+0x6b08010>
     158:	02000000 	call	200000 <_gp+0x1f77f0>
     15c:	04007091 	0x4007091
     160:	6e690504 	addi	bt,r13,-23532
     164:	01050074 	movhi	r4,5121
     168:	00000000 	call	0 <nasys_data_mem>
     16c:	73010f01 	jmpi	73010f0 <nasys_stack_top+0x6b010f0>
     170:	ec000000 	call	ec00000 <nasys_stack_top+0xe400000>
     174:	1c000003 	ldbu	r16,0(r3)
     178:	2c000004 	addi	r16,r5,0
     17c:	01000000 	call	100000 <_gp+0xf77f0>
     180:	01006106 	br	308 <__call_exitprocs+0x140>
     184:	0000730f 	ldh	zero,460(zero)
     188:	74910200 	call	7491020 <nasys_stack_top+0x6c91020>
     18c:	01006206 	br	318 <__call_exitprocs+0x150>
     190:	0000730f 	ldh	zero,460(zero)
     194:	78910200 	call	7891020 <nasys_stack_top+0x7091020>
     198:	01270000 	call	127000 <_gp+0x11e7f0>
     19c:	00020000 	call	2000 <_nasys_data_source_end+0x17d8>
     1a0:	00000085 	stb	zero,2(zero)
     1a4:	00070104 	movi	zero,7172
     1a8:	f9010000 	call	f901000 <nasys_stack_top+0xf101000>
     1ac:	68000000 	call	6800000 <nasys_stack_top+0x6000000>
     1b0:	6c000000 	call	6c00000 <nasys_stack_top+0x6400000>
     1b4:	b0000000 	call	b000000 <nasys_stack_top+0xa800000>
     1b8:	d6000000 	call	d600000 <nasys_stack_top+0xce00000>
     1bc:	02000000 	call	200000 <_gp+0x1f77f0>
     1c0:	00005001 	jmpi	500 <_nasys_data_destination+0xe0>
     1c4:	6c230100 	call	6c23010 <nasys_stack_top+0x6423010>
     1c8:	70000000 	call	7000000 <nasys_stack_top+0x6800000>
     1cc:	02000000 	call	200000 <_gp+0x1f77f0>
     1d0:	0301008b 	ldhu	r12,1026(zero)
     1d4:	00004601 	jmpi	460 <_nasys_data_destination+0x40>
     1d8:	01280100 	call	128010 <_gp+0x11f800>
     1dc:	00000070 	cmpltui	zero,zero,1
     1e0:	000000b0 	cmpltui	zero,zero,2
     1e4:	00000058 	cmpnei	zero,zero,1
     1e8:	0000b901 	jmpi	b90 <_nasys_data_source_end+0x368>
     1ec:	3c010400 	call	3c01040 <nasys_stack_top+0x3401040>
     1f0:	01000000 	call	100000 <_gp+0xf77f0>
     1f4:	0000b92a 	0xb92a
     1f8:	00660100 	call	66010 <_gp+0x5d800>
     1fc:	00050000 	call	5000 <_nasys_data_source_end+0x47d8>
     200:	02490106 	br	2608 <_nasys_data_source_end+0x1de0>
     204:	00020000 	call	2000 <_nasys_data_source_end+0x17d8>
     208:	007a0101 	jmpi	7a010 <_gp+0x71800>
     20c:	b9070000 	call	b907000 <nasys_stack_top+0xb107000>
     210:	00000000 	call	0 <nasys_data_mem>
     214:	00009408 	cmpgei	zero,zero,592
     218:	0000d200 	call	d20 <_nasys_data_source_end+0x4f8>
     21c:	00008d00 	call	8d0 <_nasys_data_source_end+0xa8>
     220:	55010900 	call	5501090 <nasys_stack_top+0x4d01090>
     224:	0a003001 	jmpi	a00300 <nasys_stack_top+0x200300>
     228:	00000098 	cmpnei	zero,zero,2
     22c:	0000a808 	cmpgei	zero,zero,672
     230:	0000e500 	call	e50 <_nasys_data_source_end+0x628>
     234:	0000af00 	call	af0 <_nasys_data_source_end+0x2c8>
     238:	56010900 	call	5601090 <nasys_stack_top+0x4e01090>
     23c:	01093001 	jmpi	109300 <_gp+0x100af0>
     240:	09300155 	stw	r4,-16379(at)
     244:	30015401 	jmpi	3001540 <nasys_stack_top+0x2801540>
     248:	00b00b00 	call	b00b0 <_gp+0xa78a0>
     24c:	011a0000 	call	11a000 <_gp+0x1117f0>
     250:	0c000000 	call	c00000 <nasys_stack_top+0x400000>
     254:	6e690504 	addi	bt,r13,-23532
     258:	5c0d0074 	orhi	r16,r11,13313
     25c:	01000000 	call	100000 <_gp+0xf77f0>
     260:	0d01011e 	bne	at,r20,668 <_nasys_data_destination+0x248>
     264:	00000131 	0x131
     268:	01011f01 	jmpi	1011f0 <_gp+0xf89e0>
     26c:	003c0104 	movi	zero,-4092
     270:	2a010000 	call	2a01000 <nasys_stack_top+0x2201000>
     274:	000000b9 	0xb9
     278:	0000e501 	jmpi	e50 <_nasys_data_source_end+0x628>
     27c:	0e000500 	call	e00050 <nasys_stack_top+0x600050>
     280:	00003701 	jmpi	370 <_exit+0x4>
     284:	01210100 	call	121010 <_gp+0x118800>
     288:	000000b9 	0xb9
     28c:	00010701 	jmpi	1070 <_nasys_data_source_end+0x848>
     290:	00b90700 	call	b9070 <_gp+0xb0860>
     294:	07070000 	call	707000 <_gp+0x6fe7f0>
     298:	07000001 	jmpi	700000 <_gp+0x6f77f0>
     29c:	00000107 	ldb	zero,4(zero)
     2a0:	0d040f00 	call	d040f0 <nasys_stack_top+0x5040f0>
     2a4:	0f000001 	jmpi	f00000 <nasys_stack_top+0x700000>
     2a8:	00011304 	movi	zero,1100
     2ac:	06011000 	call	601100 <_gp+0x5f88f0>
     2b0:	0000017e 	0x17e
     2b4:	02490111 	0x2490111
     2b8:	00020000 	call	2000 <_nasys_data_source_end+0x17d8>
     2bc:	b9070101 	jmpi	b907010 <nasys_stack_top+0xb107010>
     2c0:	00000000 	call	0 <nasys_data_mem>
     2c4:	00010600 	call	1060 <_nasys_data_source_end+0x838>
     2c8:	7c000200 	call	7c00020 <nasys_stack_top+0x7400020>
     2cc:	04000001 	jmpi	400000 <_gp+0x3f77f0>
     2d0:	00000701 	jmpi	70 <__start_2>
     2d4:	019d0100 	call	19d010 <_gp+0x194800>
     2d8:	00680000 	call	68000 <_gp+0x5f7f0>
     2dc:	00b00000 	call	b0000 <_gp+0xa77f0>
     2e0:	00b40000 	call	b4000 <_gp+0xab7f0>
     2e4:	01530000 	call	153000 <_gp+0x14a7f0>
     2e8:	01020000 	call	102000 <_gp+0xf97f0>
     2ec:	00017706 	br	8cc <_nasys_data_source_end+0xa4>
     2f0:	08010200 	call	801020 <nasys_stack_top+0x1020>
     2f4:	00000175 	stwio	zero,5(zero)
     2f8:	83050202 	0x83050202
     2fc:	02000001 	jmpi	200000 <_gp+0x1f77f0>
     300:	01440702 	0x1440702
     304:	04030000 	call	403000 <_gp+0x3fa7f0>
     308:	746e6905 	stb	r17,-18012(r14)
     30c:	07040200 	call	704020 <_gp+0x6fb810>
     310:	00000168 	cmpgeui	zero,zero,5
     314:	36050802 	0x36050802
     318:	02000001 	jmpi	200000 <_gp+0x1f77f0>
     31c:	015e0708 	cmpgei	r5,zero,30748
     320:	04020000 	call	402000 <_gp+0x3f97f0>
     324:	00013b05 	stb	zero,1260(zero)
     328:	07040200 	call	704020 <_gp+0x6fb810>
     32c:	00000194 	movui	zero,6
     330:	04020404 	movi	r16,2064
     334:	00016307 	ldb	zero,1420(zero)
     338:	06010200 	call	601020 <_gp+0x5f8810>
     33c:	0000017e 	0x17e
     340:	00015705 	stb	zero,1372(zero)
     344:	48d50200 	call	48d5020 <nasys_stack_top+0x40d5020>
     348:	06000000 	call	600000 <_gp+0x5f77f0>
     34c:	00003c01 	jmpi	3c0 <main+0x28>
     350:	01220100 	call	122010 <_gp+0x119800>
     354:	000000b0 	cmpltui	zero,zero,2
     358:	000000b4 	movhi	zero,2
     35c:	01008b02 	0x1008b02
     360:	000000eb 	ldhuio	zero,3(zero)
     364:	00025507 	ldb	zero,2388(zero)
     368:	6b220100 	call	6b22010 <nasys_stack_top+0x6322010>
     36c:	78000000 	call	7800000 <nasys_stack_top+0x7000000>
     370:	08000000 	call	800000 <nasys_stack_top>
     374:	22010063 	ldbuio	r8,1025(r4)
     378:	00000041 	jmpi	4 <nasys_data_mem+0x4>
     37c:	00000099 	0x99
     380:	00050507 	ldb	zero,5140(zero)
     384:	7b220100 	call	7b22010 <nasys_stack_top+0x7322010>
     388:	ba000000 	call	ba00000 <nasys_stack_top+0xb200000>
     38c:	09000000 	call	900000 <nasys_stack_top+0x100000>
     390:	000000b4 	movhi	zero,2
     394:	0000eb01 	jmpi	eb0 <_nasys_data_source_end+0x688>
// declare the sumthree function
int sumthree(int a, int b, int c);

int main() {
     398:	56010a00 	call	56010a0 <nasys_stack_top+0x4e010a0>
     39c:	5601f303 	ldbu	et,1996(r10)
     3a0:	0355010a 	0x355010a
     3a4:	0a5501f3 	initd	21511(at)
   int z;
   int a=2;
     3a8:	f3035401 	jmpi	f303540 <nasys_stack_top+0xeb03540>
     3ac:	00005401 	jmpi	540 <_nasys_data_destination+0x120>
   int b=3;
     3b0:	018d010b 	ldhu	r6,13316(zero)
     3b4:	1a030000 	call	1a03000 <nasys_stack_top+0x1203000>
   int c=4;
     3b8:	00006b01 	jmpi	6b0 <_nasys_data_destination+0x290>
     3bc:	6b0c0100 	call	6b0c010 <nasys_stack_top+0x630c010>
   z = sumthree(a,b,c);
     3c0:	0c000000 	call	c00000 <nasys_stack_top+0x400000>
     3c4:	00000041 	jmpi	4 <nasys_data_mem+0x4>
     3c8:	00007b0c 	andi	zero,zero,492
     3cc:	8f000000 	call	8f00000 <nasys_stack_top+0x8700000>
     3d0:	02000009 	0x2000009
   // if you run in a debugger, r2 should be 9 at this point
   
   return 0;
     3d4:	00022600 	call	2260 <_nasys_data_source_end+0x1a38>
}
     3d8:	07010400 	call	701040 <_gp+0x6f8830>
     3dc:	01000000 	call	100000 <_gp+0xf77f0>
     3e0:	00000528 	cmpgeui	zero,zero,20
     3e4:	00000380 	call	38 <sumthree+0x8>
     3e8:	000000b4 	movhi	zero,2

int sumtwo(int a, int b) {
     3ec:	000000ec 	andhi	zero,zero,3
     3f0:	000002bb 	flushd	10(zero)
     3f4:	68070402 	0x68070402
     3f8:	03000001 	jmpi	300000 <_gp+0x2f77f0>
     3fc:	6e690504 	addi	bt,r13,-23532
   return a+b;
     400:	01020074 	movhi	r4,2049
     404:	00017706 	br	9e4 <_nasys_data_source_end+0x1bc>
     408:	08010200 	call	801020 <nasys_stack_top+0x1020>
   
     40c:	00000175 	stwio	zero,5(zero)
     410:	83050202 	0x83050202
     414:	02000001 	jmpi	200000 <_gp+0x1f77f0>
     418:	01440702 	0x1440702
     41c:	08020000 	call	802000 <nasys_stack_top+0x2000>
     420:	00013605 	stb	zero,1240(zero)
     424:	07080200 	call	708020 <_gp+0x6ff810>
     428:	0000015e 	bne	zero,zero,431 <_nasys_data_destination+0x11>
     42c:	00046a04 	movi	zero,4520
     430:	2c070200 	call	2c07020 <nasys_stack_top+0x2407020>
     434:	02000000 	call	200000 <_gp+0x1f77f0>
     438:	013b0504 	movi	r4,-5100
     43c:	19040000 	call	1904000 <nasys_stack_top+0x1104000>
     440:	03000005 	stb	r12,0(zero)
     444:	0000682c 	andhi	zero,zero,416
     448:	03790500 	call	379050 <_gp+0x370840>
     44c:	62040000 	call	6204000 <nasys_stack_top+0x5a04000>
     450:	00002501 	jmpi	250 <__call_exitprocs+0x88>
     454:	03040600 	call	304060 <_gp+0x2fb850>
     458:	0000a546 	br	6f1 <_nasys_data_destination+0x2d1>
     45c:	03730700 	call	373070 <_gp+0x36a860>
     460:	48030000 	call	4803000 <nasys_stack_top+0x4003000>
     464:	0000007a 	0x7a
     468:	00032507 	ldb	zero,3220(zero)
     46c:	a5490300 	call	a549030 <nasys_stack_top+0x9d49030>
     470:	00000000 	call	0 <nasys_data_mem>
     474:	00003a08 	cmpgei	zero,zero,232
     478:	0000b500 	call	b50 <_nasys_data_source_end+0x328>
     47c:	00b50900 	call	b5090 <_gp+0xac880>
     480:	00030000 	call	3000 <_nasys_data_source_end+0x27d8>
     484:	94070402 	0x94070402
     488:	0a000001 	jmpi	a00000 <nasys_stack_top+0x200000>
     48c:	e1430308 	cmpgei	r5,fp,3084
     490:	0b000000 	call	b00000 <nasys_stack_top+0x300000>
     494:	00000503 	ldbu	zero,20(zero)
     498:	002c4503 	ldbu	zero,-20204(zero)
     49c:	23020000 	call	2302000 <nasys_stack_top+0x1b02000>
     4a0:	050b0b00 	call	50b0b0 <_gp+0x5028a0>
     4a4:	4a030000 	call	4a03000 <nasys_stack_top+0x4203000>
     4a8:	00000086 	br	4ae <_nasys_data_destination+0x8e>
     4ac:	00042302 	0x42302
     4b0:	00049f04 	movi	zero,4732
     4b4:	bc4b0300 	call	bc4b030 <nasys_stack_top+0xb44b030>
     4b8:	04000000 	call	400000 <_gp+0x3f77f0>
     4bc:	000002e8 	cmpgeui	zero,zero,11
     4c0:	005d4f03 	ldbu	at,30012(zero)
     4c4:	040c0000 	call	40c000 <_gp+0x4037f0>
     4c8:	00058504 	movi	zero,5652
     4cc:	04150500 	call	415050 <_gp+0x40c840>
     4d0:	02000001 	jmpi	200000 <_gp+0x1f77f0>
     4d4:	01630704 	movi	r5,-29668
     4d8:	f90d0000 	call	f90d000 <nasys_stack_top+0xf10d000>
     4dc:	18000002 	0x18000002
     4e0:	016a2c05 	stb	r5,-22352(zero)
     4e4:	b70b0000 	call	b70b000 <nasys_stack_top+0xaf0b000>
     4e8:	05000004 	movi	r20,0
     4ec:	00016a2e 	bgeu	zero,zero,a98 <_nasys_data_source_end+0x270>
     4f0:	00230200 	call	23020 <_gp+0x1a810>
     4f4:	006b5f0e 	bge	zero,at,ffffb274 <nasys_stack_top+0xff7fb274>
     4f8:	002c2f05 	stb	zero,-20292(zero)
     4fc:	23020000 	call	2302000 <nasys_stack_top+0x1b02000>
     500:	04ee0b04 	movi	r19,-18388
     504:	2f050000 	call	2f05000 <nasys_stack_top+0x2705000>
     508:	0000002c 	andhi	zero,zero,0
     50c:	0b082302 	0xb082302
     510:	000002e2 	0x2e2
     514:	002c2f05 	stb	zero,-20292(zero)
     518:	23020000 	call	2302000 <nasys_stack_top+0x1b02000>
     51c:	05cc0b0c 	andi	r23,zero,12332
     520:	2f050000 	call	2f05000 <nasys_stack_top+0x2705000>
     524:	0000002c 	andhi	zero,zero,0
     528:	0e102302 	0xe102302
     52c:	0500785f 	ldl	r20,481(zero)
     530:	00017030 	cmpltui	zero,zero,1472
     534:	14230200 	call	1423020 <nasys_stack_top+0xc23020>
     538:	0b040f00 	call	b040f0 <nasys_stack_top+0x3040f0>
     53c:	08000001 	jmpi	800000 <nasys_stack_top>
     540:	000000f9 	0xf9
     544:	00000180 	call	18 <nasys_data_mem+0x18>
     548:	0000b509 	0xb509
     54c:	0d000000 	call	d00000 <nasys_stack_top+0x500000>
     550:	00000320 	cmpeqi	zero,zero,12
     554:	0b340524 	muli	r12,at,-12268
     558:	0b000002 	0xb000002
     55c:	0000023f 	0x23f
     560:	002c3605 	stb	zero,-20264(zero)
     564:	23020000 	call	2302000 <nasys_stack_top+0x1b02000>
     568:	05610b00 	call	5610b0 <_gp+0x5588a0>
     56c:	37050000 	call	3705000 <nasys_stack_top+0x2f05000>
     570:	0000002c 	andhi	zero,zero,0
     574:	0b042302 	0xb042302
     578:	0000025a 	0x25a
     57c:	002c3805 	stb	zero,-20256(zero)
     580:	23020000 	call	2302000 <nasys_stack_top+0x1b02000>
     584:	06450b08 	cmpgei	bt,zero,5164
     588:	39050000 	call	3905000 <nasys_stack_top+0x3105000>
     58c:	0000002c 	andhi	zero,zero,0
     590:	0b0c2302 	0xb0c2302
     594:	00000433 	initd	16(zero)
     598:	002c3a05 	stb	zero,-20248(zero)
     59c:	23020000 	call	2302000 <nasys_stack_top+0x1b02000>
     5a0:	04220b10 	cmplti	r16,zero,-30676
     5a4:	3b050000 	call	3b05000 <nasys_stack_top+0x3305000>
     5a8:	0000002c 	andhi	zero,zero,0
     5ac:	0b142302 	0xb142302
     5b0:	000005d1 	0x5d1
     5b4:	002c3c05 	stb	zero,-20240(zero)
     5b8:	23020000 	call	2302000 <nasys_stack_top+0x1b02000>
     5bc:	04810b18 	cmpnei	r18,zero,1068
     5c0:	3d050000 	call	3d05000 <nasys_stack_top+0x3505000>
     5c4:	0000002c 	andhi	zero,zero,0
     5c8:	0b1c2302 	0xb1c2302
     5cc:	0000060c 	andi	zero,zero,24
     5d0:	002c3e05 	stb	zero,-20232(zero)
     5d4:	23020000 	call	2302000 <nasys_stack_top+0x1b02000>
     5d8:	69100020 	cmpeqi	r4,r13,16384
     5dc:	08000002 	0x8000002
     5e0:	54470501 	jmpi	5447050 <nasys_stack_top+0x4c47050>
     5e4:	0b000002 	0xb000002
     5e8:	000002d5 	stw	zero,11(zero)
     5ec:	02544805 	stb	r9,20768(zero)
     5f0:	23020000 	call	2302000 <nasys_stack_top+0x1b02000>
     5f4:	01d40b00 	call	1d40b0 <_gp+0x1cb8a0>
     5f8:	49050000 	call	4905000 <nasys_stack_top+0x4105000>
     5fc:	00000254 	movui	zero,9
     600:	01802303 	ldbu	r6,140(zero)
     604:	0005770b 	ldhu	zero,5596(zero)
     608:	f94b0500 	call	f94b050 <nasys_stack_top+0xf14b050>
     60c:	03000000 	call	300000 <_gp+0x2f77f0>
     610:	0b028023 	ldbuio	r12,2560(at)
     614:	0000028e 	bge	zero,zero,622 <_nasys_data_destination+0x202>
     618:	00f94e05 	stb	r3,-6856(zero)
     61c:	23030000 	call	2303000 <nasys_stack_top+0x1b03000>
     620:	08000284 	addi	zero,at,10
     624:	000000f7 	ldwio	zero,3(zero)
     628:	00000264 	muli	zero,zero,9
     62c:	0000b509 	0xb509
     630:	10001f00 	call	10001f0 <nasys_stack_top+0x8001f0>
     634:	0000043c 	xorhi	zero,zero,16
     638:	59050190 	cmplti	r4,r11,5126
     63c:	000002ab 	ldhuio	zero,10(zero)
     640:	0004b70b 	ldhu	zero,4828(zero)
     644:	ab5a0500 	call	ab5a050 <nasys_stack_top+0xa35a050>
     648:	02000002 	0x2000002
     64c:	cf0b0023 	ldbuio	fp,11264(bt)
     650:	05000004 	movi	r20,0
     654:	00002c5b 	flushda	177(zero)
     658:	04230200 	call	423020 <_gp+0x41a810>
     65c:	0002dd0b 	ldhu	zero,2932(zero)
     660:	b15d0500 	call	b15d050 <nasys_stack_top+0xa95d050>
     664:	02000002 	0x2000002
     668:	690b0823 	ldbuio	r4,11296(r13)
     66c:	05000002 	0x5000002
     670:	00020b5e 	bne	zero,zero,ea1 <_nasys_data_source_end+0x679>
     674:	88230300 	call	8823030 <nasys_stack_top+0x8023030>
     678:	040f0001 	jmpi	40f000 <_gp+0x4067f0>
     67c:	00000264 	muli	zero,zero,9
     680:	0002c308 	cmpgei	zero,zero,2828
     684:	0002c100 	call	2c10 <_nasys_data_source_end+0x23e8>
     688:	00b50900 	call	b5090 <_gp+0xac880>
     68c:	001f0000 	call	1f000 <_gp+0x167f0>
     690:	040f0111 	0x40f0111
     694:	000002c1 	jmpi	2c <nasys_data_mem+0x2c>
     698:	00048b0d 	sth	zero,4652(zero)
     69c:	69050800 	call	6905080 <nasys_stack_top+0x6105080>
     6a0:	000002f2 	custom	11,c0,c0,c0
     6a4:	0002540b 	ldhu	zero,2384(zero)
     6a8:	f26a0500 	call	f26a050 <nasys_stack_top+0xea6a050>
     6ac:	02000002 	0x2000002
     6b0:	e00b0023 	ldbuio	zero,11264(fp)
     6b4:	05000001 	jmpi	500000 <_gp+0x4f77f0>
     6b8:	00002c6b 	ldhuio	zero,177(zero)
     6bc:	04230200 	call	423020 <_gp+0x41a810>
     6c0:	3a040f00 	call	3a040f0 <nasys_stack_top+0x32040f0>
     6c4:	0d000000 	call	d00000 <nasys_stack_top+0x500000>
     6c8:	000004aa 	0x4aa
     6cc:	36c4055c 	xori	sp,r6,4117
     6d0:	0e000004 	addi	et,at,0
     6d4:	0500705f 	ldl	r20,449(zero)
     6d8:	0002f2c5 	stb	zero,3019(zero)
     6dc:	00230200 	call	23020 <_gp+0x1a810>
     6e0:	00725f0e 	bge	zero,at,ffffd060 <nasys_stack_top+0xff7fd060>
     6e4:	002cc605 	stb	zero,-19688(zero)
     6e8:	23020000 	call	2302000 <nasys_stack_top+0x1b02000>
     6ec:	775f0e04 	addi	ea,r14,31800
     6f0:	2cc70500 	call	2cc7050 <nasys_stack_top+0x24c7050>
     6f4:	02000000 	call	200000 <_gp+0x1f77f0>
     6f8:	870b0823 	ldbuio	fp,11296(r16)
     6fc:	05000002 	0x5000002
     700:	000041c8 	cmpgei	zero,zero,263
     704:	0c230200 	call	c23020 <nasys_stack_top+0x423020>
     708:	00033c0b 	ldhu	zero,3312(zero)
     70c:	41c90500 	call	41c9050 <nasys_stack_top+0x39c9050>
     710:	02000000 	call	200000 <_gp+0x1f77f0>
     714:	5f0e0e23 	ldbuio	fp,14392(r11)
     718:	05006662 	0x5006662
     71c:	0002c9ca 	0x2c9ca
     720:	10230200 	call	1023020 <nasys_stack_top+0x823020>
     724:	0002190b 	ldhu	zero,2148(zero)
     728:	2ccb0500 	call	2ccb050 <nasys_stack_top+0x24cb050>
     72c:	02000000 	call	200000 <_gp+0x1f77f0>
     730:	770b1823 	ldbuio	fp,11360(r14)
     734:	05000002 	0x5000002
     738:	0000f7d2 	0xf7d2
     73c:	1c230200 	call	1c23020 <nasys_stack_top+0x1423020>
     740:	0003100b 	ldhu	zero,3136(zero)
     744:	c6d40500 	call	c6d4050 <nasys_stack_top+0xbed4050>
     748:	02000005 	stb	r8,0(zero)
     74c:	1b0b2023 	ldbuio	r12,11392(r3)
     750:	05000004 	movi	r20,0
     754:	0005f6d6 	blt	zero,zero,1f33 <_nasys_data_source_end+0x170b>
     758:	24230200 	call	2423020 <nasys_stack_top+0x1c23020>
     75c:	0005130b 	ldhu	zero,5196(zero)
     760:	1bd80500 	call	1bd8050 <nasys_stack_top+0x13d8050>
     764:	02000006 	br	768 <_nasys_data_destination+0x348>
     768:	260b2823 	ldbuio	et,11424(r4)
     76c:	05000006 	br	770 <_nasys_data_destination+0x350>
     770:	000636d9 	0x636d9
     774:	2c230200 	call	2c23020 <nasys_stack_top+0x2423020>
     778:	62755f0e 	bge	r12,r9,ffffdcf8 <nasys_stack_top+0xff7fdcf8>
     77c:	c9dc0500 	call	c9dc050 <nasys_stack_top+0xc1dc050>
     780:	02000002 	0x2000002
     784:	5f0e3023 	ldbuio	fp,14528(r11)
     788:	05007075 	stwio	r20,449(zero)
     78c:	0002f2dd 	stc	zero,3019(zero)
     790:	38230200 	call	3823020 <nasys_stack_top+0x3023020>
     794:	72755f0e 	bge	r14,r9,ffffdd14 <nasys_stack_top+0xff7fdd14>
     798:	2cde0500 	call	2cde050 <nasys_stack_top+0x24de050>
     79c:	02000000 	call	200000 <_gp+0x1f77f0>
     7a0:	4e0b3c23 	ldbuio	et,11504(r9)
     7a4:	05000002 	0x5000002
     7a8:	00063ce1 	0x63ce1
     7ac:	40230200 	call	4023020 <nasys_stack_top+0x3823020>
     7b0:	0005fe0b 	ldhu	zero,6136(zero)
     7b4:	4ce20500 	call	4ce2050 <nasys_stack_top+0x44e2050>
     7b8:	02000006 	br	7bc <_nasys_data_destination+0x39c>
     7bc:	5f0e4323 	ldbuio	fp,14604(r11)
     7c0:	0500626c 	andhi	r20,zero,393
     7c4:	0002c9e5 	stbio	zero,2855(zero)
     7c8:	44230200 	call	4423020 <nasys_stack_top+0x3c23020>
     7cc:	00029d0b 	ldhu	zero,2676(zero)
     7d0:	2ce80500 	call	2ce8050 <nasys_stack_top+0x24e8050>
     7d4:	02000000 	call	200000 <_gp+0x1f77f0>
     7d8:	ae0b4c23 	ldbuio	et,11568(r21)
     7dc:	05000002 	0x5000002
     7e0:	00002ce9 	0x2ce9
     7e4:	50230200 	call	5023020 <nasys_stack_top+0x4823020>
     7e8:	0006550b 	ldhu	zero,6484(zero)
     7ec:	55ec0500 	call	55ec050 <nasys_stack_top+0x4dec050>
     7f0:	02000004 	movi	r8,0
     7f4:	0f0b5423 	ldbuio	fp,11600(at)
     7f8:	05000004 	movi	r20,0
     7fc:	0000ecf0 	cmpltui	zero,zero,947
     800:	58230200 	call	5823020 <nasys_stack_top+0x5023020>
     804:	2c011200 	call	2c01120 <nasys_stack_top+0x2401120>
     808:	55000000 	call	5500000 <nasys_stack_top+0x4d00000>
     80c:	13000004 	addi	r12,r2,0
     810:	00000455 	stw	zero,17(zero)
     814:	0000f713 	initda	988(zero)
     818:	05b91300 	call	5b9130 <_gp+0x5b0920>
     81c:	2c130000 	call	2c13000 <nasys_stack_top+0x2413000>
     820:	00000000 	call	0 <nasys_data_mem>
     824:	045b040f 	ldh	r17,27664(zero)
     828:	f6140000 	call	f614000 <nasys_stack_top+0xee14000>
     82c:	00000004 	movi	zero,0
     830:	029d0504 	movi	r10,29716
     834:	000005b9 	0x5b9
     838:	00052115 	stw	zero,5252(zero)
     83c:	029f0500 	call	29f050 <_gp+0x296840>
     840:	0000002c 	andhi	zero,zero,0
     844:	15002302 	0x15002302
     848:	00000296 	blt	zero,zero,856 <_nasys_data_source_end+0x2e>
     84c:	a902a405 	stb	r4,2704(r21)
     850:	02000006 	br	854 <_nasys_data_source_end+0x2c>
     854:	2c150423 	ldbuio	r16,21520(r5)
     858:	05000003 	ldbu	r20,0(zero)
     85c:	06a902a4 	muli	gp,zero,-23542
     860:	23020000 	call	2302000 <nasys_stack_top+0x1b02000>
     864:	02f11508 	cmpgei	r11,zero,-15276
     868:	a4050000 	call	a405000 <nasys_stack_top+0x9c05000>
     86c:	0006a902 	0x6a902
     870:	0c230200 	call	c23020 <nasys_stack_top+0x423020>
     874:	0004ca15 	stw	zero,4904(zero)
     878:	02a60500 	call	2a6050 <_gp+0x29d840>
     87c:	0000002c 	andhi	zero,zero,0
     880:	15102302 	0x15102302
     884:	000001ee 	bgeu	zero,zero,88f <_nasys_data_source_end+0x67>
     888:	b302a705 	stb	r12,2716(r22)
     88c:	02000008 	cmpgei	r8,zero,0
     890:	ad151423 	ldbuio	r20,21584(r21)
     894:	05000005 	stb	r20,0(zero)
     898:	002c02a9 	0x2c02a9
     89c:	23020000 	call	2302000 <nasys_stack_top+0x1b02000>
     8a0:	04d41530 	cmpltui	r19,zero,20564
     8a4:	aa050000 	call	aa05000 <nasys_stack_top+0xa205000>
     8a8:	0005eb02 	0x5eb02
     8ac:	34230200 	call	3423020 <nasys_stack_top+0x2c23020>
     8b0:	00044415 	stw	zero,4368(zero)
     8b4:	02ac0500 	call	2ac050 <_gp+0x2a3840>
     8b8:	0000002c 	andhi	zero,zero,0
     8bc:	15382302 	0x15382302
     8c0:	000004e4 	muli	zero,zero,19
     8c4:	cf02ae05 	stb	fp,2744(bt)
     8c8:	02000008 	cmpgei	r8,zero,0
     8cc:	6b153c23 	ldbuio	r12,21744(r13)
     8d0:	05000003 	ldbu	r20,0(zero)
     8d4:	016a02b1 	0x16a02b1
     8d8:	23020000 	call	2302000 <nasys_stack_top+0x1b02000>
     8dc:	03161540 	call	316154 <_gp+0x30d944>
     8e0:	b2050000 	call	b205000 <nasys_stack_top+0xaa05000>
     8e4:	00002c02 	0x2c02
     8e8:	44230200 	call	4423020 <nasys_stack_top+0x3c23020>
     8ec:	00064015 	stw	zero,6400(zero)
     8f0:	02b30500 	call	2b3050 <_gp+0x2aa840>
     8f4:	0000016a 	0x16a
     8f8:	15482302 	0x15482302
     8fc:	00000460 	cmpeqi	zero,zero,17
     900:	d502b405 	stb	r20,2768(gp)
     904:	02000008 	cmpgei	r8,zero,0
     908:	34154c23 	ldbuio	r16,21808(r6)
     90c:	05000003 	ldbu	r20,0(zero)
     910:	002c02b7 	ldwio	zero,-20470(zero)
     914:	23020000 	call	2302000 <nasys_stack_top+0x1b02000>
     918:	02a61550 	cmplti	r10,zero,-26539
     91c:	b8050000 	call	b805000 <nasys_stack_top+0xb005000>
     920:	0005b902 	0x5b902
     924:	54230200 	call	5423020 <nasys_stack_top+0x4c23020>
     928:	00047c15 	stw	zero,4592(zero)
     92c:	02da0500 	call	2da050 <_gp+0x2d1840>
     930:	00000891 	0x891
     934:	15582302 	0x15582302
     938:	0000043c 	xorhi	zero,zero,16
     93c:	ab02dd05 	stb	r12,2932(r21)
     940:	03000002 	0x3000002
     944:	1502c823 	ldbuio	r20,2848(r2)
     948:	00000349 	0x349
     94c:	6402de05 	stb	r16,2936(r12)
     950:	03000002 	0x3000002
     954:	1502cc23 	ldbuio	r20,2864(r2)
     958:	000005f4 	movhi	zero,23
     95c:	e702e105 	stb	fp,2948(fp)
     960:	03000008 	cmpgei	r12,zero,0
     964:	1505dc23 	ldbuio	r20,6000(r2)
     968:	0000027f 	0x27f
     96c:	6802e605 	stb	zero,2968(r13)
     970:	03000006 	br	974 <_nasys_data_source_end+0x14c>
     974:	1505e023 	ldbuio	r20,6016(r2)
     978:	00000264 	muli	zero,zero,9
     97c:	f302e705 	stb	r12,2972(ba)
     980:	03000008 	cmpgei	r12,zero,0
     984:	0005ec23 	ldbuio	zero,6064(zero)
     988:	05bf040f 	ldh	r22,-1008(zero)
     98c:	01020000 	call	102000 <_gp+0xf97f0>
     990:	00017e06 	br	f8c <_nasys_data_source_end+0x764>
     994:	36040f00 	call	36040f0 <nasys_stack_top+0x2e040f0>
     998:	12000004 	addi	r8,r2,0
     99c:	00002c01 	jmpi	2c0 <__call_exitprocs+0xf8>
     9a0:	0005eb00 	call	5eb0 <_nasys_data_source_end+0x5688>
     9a4:	04551300 	call	455130 <_gp+0x44c920>
     9a8:	f7130000 	call	f713000 <nasys_stack_top+0xef13000>
     9ac:	13000000 	call	1300000 <nasys_stack_top+0xb00000>
     9b0:	000005eb 	ldhuio	zero,23(zero)
     9b4:	00002c13 	initda	176(zero)
     9b8:	040f0000 	call	40f000 <_gp+0x4067f0>
     9bc:	000005f1 	0x5f1
     9c0:	0005bf16 	blt	zero,zero,20c0 <_nasys_data_source_end+0x1898>
     9c4:	cc040f00 	call	cc040f0 <nasys_stack_top+0xc4040f0>
     9c8:	12000005 	stb	r8,0(r2)
     9cc:	00006f01 	jmpi	6f0 <_nasys_data_destination+0x2d0>
     9d0:	00061b00 	call	61b0 <_nasys_data_source_end+0x5988>
     9d4:	04551300 	call	455130 <_gp+0x44c920>
     9d8:	f7130000 	call	f713000 <nasys_stack_top+0xef13000>
     9dc:	13000000 	call	1300000 <nasys_stack_top+0xb00000>
     9e0:	0000006f 	ldhio	zero,1(zero)
     9e4:	00002c13 	initda	176(zero)
     9e8:	040f0000 	call	40f000 <_gp+0x4067f0>
     9ec:	000005fc 	xorhi	zero,zero,23
     9f0:	002c0112 	0x2c0112
     9f4:	06360000 	call	636000 <_gp+0x62d7f0>
     9f8:	55130000 	call	5513000 <nasys_stack_top+0x4d13000>
     9fc:	13000004 	addi	r12,r2,0
     a00:	000000f7 	ldwio	zero,3(zero)
     a04:	21040f00 	call	21040f0 <nasys_stack_top+0x19040f0>
     a08:	08000006 	br	a0c <_nasys_data_source_end+0x1e4>
     a0c:	0000003a 	0x3a
     a10:	0000064c 	andi	zero,zero,25
     a14:	0000b509 	0xb509
     a18:	08000200 	call	800020 <nasys_stack_top+0x20>
     a1c:	0000003a 	0x3a
     a20:	0000065c 	xori	zero,zero,25
     a24:	0000b509 	0xb509
     a28:	05000000 	call	500000 <_gp+0x4f77f0>
     a2c:	00000498 	cmpnei	zero,zero,18
     a30:	f8013005 	stb	zero,1216(ra)
     a34:	17000002 	0x17000002
     a38:	000005db 	flushda	23(zero)
     a3c:	0135050c 	andi	r4,zero,54292
     a40:	000006a3 	ldbuio	zero,26(zero)
     a44:	0004b715 	stw	zero,4828(zero)
     a48:	01370500 	call	137050 <_gp+0x12e840>
     a4c:	000006a3 	ldbuio	zero,26(zero)
     a50:	15002302 	0x15002302
     a54:	00000342 	0x342
     a58:	2c013805 	stb	r16,1248(r5)
     a5c:	02000000 	call	200000 <_gp+0x1f77f0>
     a60:	92150423 	ldbuio	r8,21520(r18)
     a64:	05000004 	movi	r20,0
     a68:	06a90139 	0x6a90139
     a6c:	23020000 	call	2302000 <nasys_stack_top+0x1b02000>
     a70:	040f0008 	cmpgei	r16,zero,15360
     a74:	00000668 	cmpgeui	zero,zero,25
     a78:	065c040f 	ldh	bt,28688(zero)
     a7c:	e6170000 	call	e617000 <nasys_stack_top+0xde17000>
     a80:	0e000001 	jmpi	e00000 <nasys_stack_top+0x600000>
     a84:	ea015105 	stb	r8,1348(ea)
     a88:	15000006 	br	a8c <_nasys_data_source_end+0x264>
     a8c:	000004fd 	0x4fd
     a90:	ea015205 	stb	r8,1352(ea)
     a94:	02000006 	br	a98 <_nasys_data_source_end+0x270>
     a98:	15150023 	ldbuio	r20,21504(r2)
     a9c:	05000004 	movi	r20,0
     aa0:	06ea0153 	initda	-22523(zero)
     aa4:	23020000 	call	2302000 <nasys_stack_top+0x1b02000>
     aa8:	05801506 	br	b00 <_nasys_data_source_end+0x2d8>
     aac:	54050000 	call	5405000 <nasys_stack_top+0x4c05000>
     ab0:	00004801 	jmpi	480 <_nasys_data_destination+0x60>
     ab4:	0c230200 	call	c23020 <nasys_stack_top+0x423020>
     ab8:	00480800 	call	48080 <_gp+0x3f870>
     abc:	06fa0000 	call	6fa000 <_gp+0x6f17f0>
     ac0:	b5090000 	call	b509000 <nasys_stack_top+0xad09000>
     ac4:	02000000 	call	200000 <_gp+0x1f77f0>
     ac8:	05c81800 	call	5c8180 <_gp+0x5bf970>
     acc:	081902bc 	xorhi	zero,at,25610
     ad0:	bf150000 	call	bf15000 <nasys_stack_top+0xb715000>
     ad4:	05000005 	stb	r20,0(zero)
     ad8:	002502be 	0x2502be
     adc:	23020000 	call	2302000 <nasys_stack_top+0x1b02000>
     ae0:	056a1500 	call	56a150 <_gp+0x561940>
     ae4:	bf050000 	call	bf05000 <nasys_stack_top+0xb705000>
     ae8:	0005b902 	0x5b902
     aec:	04230200 	call	423020 <_gp+0x41a810>
     af0:	00035e15 	stw	zero,3448(zero)
     af4:	02c00500 	call	2c0050 <_gp+0x2b7840>
     af8:	00000819 	0x819
     afc:	15082302 	0x15082302
     b00:	00000617 	ldw	zero,24(zero)
     b04:	8002c105 	stb	zero,2820(r16)
     b08:	02000001 	jmpi	200000 <_gp+0x1f77f0>
     b0c:	01152423 	ldbuio	r4,21648(zero)
     b10:	05000003 	ldbu	r20,0(zero)
     b14:	002c02c2 	0x2c02c2
     b18:	23020000 	call	2302000 <nasys_stack_top+0x1b02000>
     b1c:	04b21548 	cmpgei	r18,zero,-14251
     b20:	c3050000 	call	c305000 <nasys_stack_top+0xbb05000>
     b24:	00005602 	0x5602
     b28:	4c230200 	call	4c23020 <nasys_stack_top+0x4423020>
     b2c:	00062d15 	stw	zero,6324(zero)
     b30:	02c40500 	call	2c4050 <_gp+0x2bb840>
     b34:	000006af 	ldhio	zero,26(zero)
     b38:	15542302 	0x15542302
     b3c:	000004bd 	0x4bd
     b40:	e102c505 	stb	r4,2836(fp)
     b44:	02000000 	call	200000 <_gp+0x1f77f0>
     b48:	32156423 	ldbuio	r8,21904(r6)
     b4c:	05000006 	br	b50 <_nasys_data_source_end+0x328>
     b50:	00e102c6 	br	ffff8f5f <nasys_stack_top+0xff7f8f5f>
     b54:	23020000 	call	2302000 <nasys_stack_top+0x1b02000>
     b58:	0231156c 	andhi	r8,zero,50261
     b5c:	c7050000 	call	c705000 <nasys_stack_top+0xbf05000>
     b60:	0000e102 	0xe102
     b64:	74230200 	call	7423020 <nasys_stack_top+0x6c23020>
     b68:	0005ea15 	stw	zero,6056(zero)
     b6c:	02c80500 	call	2c8050 <_gp+0x2bf840>
     b70:	00000829 	0x829
     b74:	157c2302 	0x157c2302
     b78:	00000352 	0x352
     b7c:	3902c905 	stb	r4,2852(r7)
     b80:	03000008 	cmpgei	r12,zero,0
     b84:	15018423 	ldbuio	r20,1552(r2)
     b88:	0000058d 	sth	zero,22(zero)
     b8c:	2c02ca05 	stb	r16,2856(r5)
     b90:	03000000 	call	300000 <_gp+0x2f77f0>
     b94:	15019c23 	ldbuio	r20,1648(r2)
     b98:	000002c7 	ldb	zero,11(zero)
     b9c:	e102cb05 	stb	r4,2860(fp)
     ba0:	03000000 	call	300000 <_gp+0x2f77f0>
     ba4:	1501a023 	ldbuio	r20,1664(r2)
     ba8:	00000222 	0x222
     bac:	e102cc05 	stb	r4,2864(fp)
     bb0:	03000000 	call	300000 <_gp+0x2f77f0>
     bb4:	1501a823 	ldbuio	r20,1696(r2)
     bb8:	000002b6 	bltu	zero,zero,bc6 <_nasys_data_source_end+0x39e>
     bbc:	e102cd05 	stb	r4,2868(fp)
     bc0:	03000000 	call	300000 <_gp+0x2f77f0>
     bc4:	1501b023 	ldbuio	r20,1728(r2)
     bc8:	000001f9 	0x1f9
     bcc:	e102ce05 	stb	r4,2872(fp)
     bd0:	03000000 	call	300000 <_gp+0x2f77f0>
     bd4:	1501b823 	ldbuio	r20,1760(r2)
     bd8:	00000208 	cmpgei	zero,zero,8
     bdc:	e102cf05 	stb	r4,2876(fp)
     be0:	03000000 	call	300000 <_gp+0x2f77f0>
     be4:	0001c023 	ldbuio	zero,1792(zero)
     be8:	0005bf08 	cmpgei	zero,zero,5884
     bec:	00082900 	call	8290 <_nasys_data_source_end+0x7a68>
     bf0:	00b50900 	call	b5090 <_gp+0xac880>
     bf4:	00190000 	call	19000 <_gp+0x107f0>
     bf8:	0005bf08 	cmpgei	zero,zero,5884
     bfc:	00083900 	call	8390 <_nasys_data_source_end+0x7b68>
     c00:	00b50900 	call	b5090 <_gp+0xac880>
     c04:	00070000 	call	7000 <_nasys_data_source_end+0x67d8>
     c08:	0005bf08 	cmpgei	zero,zero,5884
     c0c:	00084900 	call	8490 <_nasys_data_source_end+0x7c68>
     c10:	00b50900 	call	b5090 <_gp+0xac880>
     c14:	00170000 	call	17000 <_gp+0xe7f0>
     c18:	d405f018 	cmpnei	r16,gp,6080
     c1c:	00087102 	0x87102
     c20:	042c1500 	call	42c150 <_gp+0x423940>
     c24:	d7050000 	call	d705000 <nasys_stack_top+0xcf05000>
     c28:	00087102 	0x87102
     c2c:	00230200 	call	23020 <_gp+0x1a810>
     c30:	0005e115 	stw	zero,6020(zero)
     c34:	02d80500 	call	2d8050 <_gp+0x2cf840>
     c38:	00000881 	jmpi	88 <__start_2+0x18>
     c3c:	00782302 	0x782302
     c40:	0002f208 	cmpgei	zero,zero,3016
     c44:	00088100 	call	8810 <_gp>
     c48:	00b50900 	call	b5090 <_gp+0xac880>
     c4c:	001d0000 	call	1d000 <_gp+0x147f0>
     c50:	00002508 	cmpgei	zero,zero,148
     c54:	00089100 	call	8910 <_gp+0x100>
     c58:	00b50900 	call	b5090 <_gp+0xac880>
     c5c:	001d0000 	call	1d000 <_gp+0x147f0>
     c60:	ba05f019 	0xba05f019
     c64:	0008b302 	0x8b302
     c68:	04f61a00 	call	4f61a0 <_gp+0x4ed990>
     c6c:	d0050000 	call	d005000 <nasys_stack_top+0xc805000>
     c70:	0006fa02 	0x6fa02
     c74:	06041a00 	call	6041a0 <_gp+0x5fb990>
     c78:	d9050000 	call	d905000 <nasys_stack_top+0xd105000>
     c7c:	00084902 	0x84902
     c80:	bf080000 	call	bf08000 <nasys_stack_top+0xb708000>
     c84:	c3000005 	stb	r12,0(et)
     c88:	09000008 	cmpgei	r4,at,0
     c8c:	000000b5 	stwio	zero,2(zero)
     c90:	011b0018 	cmpnei	r4,zero,27648
     c94:	000008cf 	ldh	zero,35(zero)
     c98:	00045513 	initda	4436(zero)
     c9c:	040f0000 	call	40f000 <_gp+0x4067f0>
     ca0:	000008c3 	ldbu	zero,35(zero)
     ca4:	016a040f 	ldh	r5,-22512(zero)
     ca8:	011b0000 	call	11b000 <_gp+0x1127f0>
     cac:	000008e7 	ldbio	zero,35(zero)
     cb0:	00002c13 	initda	176(zero)
     cb4:	040f0000 	call	40f000 <_gp+0x4067f0>
     cb8:	000008ed 	sthio	zero,35(zero)
     cbc:	08db040f 	ldh	r3,27664(at)
     cc0:	5c080000 	call	5c08000 <nasys_stack_top+0x5408000>
     cc4:	03000006 	br	cc8 <_nasys_data_source_end+0x4a0>
     cc8:	09000009 	0x9000009
     ccc:	000000b5 	stwio	zero,2(zero)
     cd0:	011c0002 	0x11c0002
     cd4:	00000249 	0x249
     cd8:	b4014f06 	br	1218 <_nasys_data_source_end+0x9f0>
     cdc:	ec000000 	call	ec00000 <nasys_stack_top+0xe400000>
     ce0:	db000000 	call	db00000 <nasys_stack_top+0xd300000>
     ce4:	01000000 	call	100000 <_gp+0xf77f0>
     ce8:	00000956 	blt	zero,zero,d11 <_nasys_data_source_end+0x4e9>
     cec:	00089f1d 	stc	zero,8828(zero)
     cf0:	2c3a0100 	call	2c3a010 <nasys_stack_top+0x243a010>
     cf4:	fb000000 	call	fb00000 <nasys_stack_top+0xf300000>
     cf8:	1e000000 	call	1e00000 <nasys_stack_top+0x1600000>
     cfc:	000000cc 	andi	zero,zero,3
     d00:	00000969 	0x969
     d04:	00000945 	stb	zero,37(zero)
     d08:	0155011f 	ldl	r5,21508(zero)
     d0c:	54011f30 	cmpltui	r16,r10,1148
     d10:	00008002 	0x8002
     d14:	0000ec20 	cmpeqi	zero,zero,944
     d18:	00098200 	call	9820 <_gp+0x1010>
     d1c:	54011f00 	call	54011f0 <nasys_stack_top+0x4c011f0>
     d20:	00008002 	0x8002
     d24:	059a2100 	call	59a210 <_gp+0x591a00>
     d28:	86050000 	call	8605000 <nasys_stack_top+0x7e05000>
     d2c:	00096403 	ldbu	zero,9616(zero)
     d30:	16010100 	call	1601010 <nasys_stack_top+0xe01010>
     d34:	00000455 	stw	zero,17(zero)
     d38:	044f0122 	0x44f0122
     d3c:	0c070000 	call	c07000 <nasys_stack_top+0x407000>
     d40:	09820101 	jmpi	982010 <nasys_stack_top+0x182010>
     d44:	2c130000 	call	2c13000 <nasys_stack_top+0x2413000>
     d48:	13000000 	call	1300000 <nasys_stack_top+0xb00000>
     d4c:	000000f7 	ldwio	zero,3(zero)
     d50:	48012300 	call	4801230 <nasys_stack_top+0x4001230>
     d54:	08000002 	0x8000002
     d58:	13010111 	0x13010111
     d5c:	0000002c 	andhi	zero,zero,0
     d60:	09340000 	call	934000 <nasys_stack_top+0x134000>
     d64:	00020000 	call	2000 <_nasys_data_source_end+0x17d8>
     d68:	000003ee 	bgeu	zero,zero,d7b <_nasys_data_source_end+0x553>
     d6c:	00070104 	movi	zero,7172
     d70:	e9010000 	call	e901000 <nasys_stack_top+0xe101000>
     d74:	5b000006 	br	d78 <_nasys_data_source_end+0x550>
     d78:	d4000006 	br	d7c <_nasys_data_source_end+0x554>
     d7c:	02000004 	movi	r8,0
     d80:	01770601 	jmpi	177060 <_gp+0x16e850>
     d84:	01020000 	call	102000 <_gp+0xf97f0>
     d88:	00017508 	cmpgei	zero,zero,1492
     d8c:	05020200 	call	502020 <_gp+0x4f9810>
     d90:	00000183 	ldbu	zero,6(zero)
     d94:	44070202 	0x44070202
     d98:	03000001 	jmpi	300000 <_gp+0x2f77f0>
     d9c:	6e690504 	addi	bt,r13,-23532
     da0:	04020074 	movhi	r16,2049
     da4:	00016807 	ldb	zero,1440(zero)
     da8:	05080200 	call	508020 <_gp+0x4ff810>
     dac:	00000136 	bltu	zero,zero,db4 <_nasys_data_source_end+0x58c>
     db0:	5e070802 	0x5e070802
     db4:	04000001 	jmpi	400000 <_gp+0x3f77f0>
     db8:	0000046a 	0x46a
     dbc:	00390701 	jmpi	39070 <_gp+0x30860>
     dc0:	04020000 	call	402000 <_gp+0x3f97f0>
     dc4:	00013b05 	stb	zero,1260(zero)
     dc8:	05190400 	call	519040 <_gp+0x510830>
     dcc:	2c020000 	call	2c02000 <nasys_stack_top+0x2402000>
     dd0:	00000060 	cmpeqi	zero,zero,1
     dd4:	00037905 	stb	zero,3556(zero)
     dd8:	01620300 	call	162030 <_gp+0x159820>
     ddc:	00000040 	call	4 <nasys_data_mem+0x4>
     de0:	46020406 	br	15f4 <_nasys_data_source_end+0xdcc>
     de4:	0000009d 	stc	zero,2(zero)
     de8:	00037307 	ldb	zero,3532(zero)
     dec:	72480200 	call	7248020 <nasys_stack_top+0x6a48020>
     df0:	07000000 	call	700000 <_gp+0x6f77f0>
     df4:	00000325 	stbio	zero,12(zero)
     df8:	009d4902 	0x9d4902
     dfc:	08000000 	call	800000 <nasys_stack_top>
     e00:	00000024 	muli	zero,zero,0
     e04:	000000ad 	sthio	zero,2(zero)
     e08:	0000ad09 	0xad09
     e0c:	02000300 	call	200030 <_gp+0x1f7820>
     e10:	01940704 	movi	r6,20508
     e14:	080a0000 	call	80a000 <nasys_stack_top+0xa000>
     e18:	00d94302 	0xd94302
     e1c:	030b0000 	call	30b000 <_gp+0x3027f0>
     e20:	02000005 	stb	r8,0(zero)
     e24:	00003945 	stb	zero,229(zero)
     e28:	00230200 	call	23020 <_gp+0x1a810>
     e2c:	00050b0b 	ldhu	zero,5164(zero)
     e30:	7e4a0200 	call	7e4a020 <nasys_stack_top+0x764a020>
     e34:	02000000 	call	200000 <_gp+0x1f77f0>
     e38:	04000423 	ldbuio	r16,16(zero)
     e3c:	0000049f 	ldl	zero,18(zero)
     e40:	00b44b02 	0xb44b02
     e44:	e8040000 	call	e804000 <nasys_stack_top+0xe004000>
     e48:	02000002 	0x2000002
     e4c:	0000554f 	ldh	zero,341(zero)
     e50:	04040c00 	call	4040c0 <_gp+0x3fb8b0>
     e54:	00000585 	stb	zero,22(zero)
     e58:	00fc1504 	movi	r3,-4012
     e5c:	04020000 	call	402000 <_gp+0x3f97f0>
     e60:	00016307 	ldb	zero,1420(zero)
     e64:	02f90d00 	call	2f90d0 <_gp+0x2f08c0>
     e68:	04180000 	call	418000 <_gp+0x40f7f0>
     e6c:	0001622c 	andhi	zero,zero,1416
     e70:	04b70b00 	call	4b70b0 <_gp+0x4ae8a0>
     e74:	2e040000 	call	2e04000 <nasys_stack_top+0x2604000>
     e78:	00000162 	0x162
     e7c:	0e002302 	0xe002302
     e80:	04006b5f 	ldl	r16,429(zero)
     e84:	0000392f 	ldhio	zero,228(zero)
     e88:	04230200 	call	423020 <_gp+0x41a810>
     e8c:	0004ee0b 	ldhu	zero,5048(zero)
     e90:	392f0400 	call	392f040 <nasys_stack_top+0x312f040>
     e94:	02000000 	call	200000 <_gp+0x1f77f0>
     e98:	e20b0823 	ldbuio	r8,11296(fp)
     e9c:	04000002 	0x4000002
     ea0:	0000392f 	ldhio	zero,228(zero)
     ea4:	0c230200 	call	c23020 <nasys_stack_top+0x423020>
     ea8:	0005cc0b 	ldhu	zero,5936(zero)
     eac:	392f0400 	call	392f040 <nasys_stack_top+0x312f040>
     eb0:	02000000 	call	200000 <_gp+0x1f77f0>
     eb4:	5f0e1023 	ldbuio	fp,14400(r11)
     eb8:	30040078 	rdprs	zero,r6,4097
     ebc:	00000168 	cmpgeui	zero,zero,5
     ec0:	00142302 	0x142302
     ec4:	0103040f 	ldh	r4,3088(zero)
     ec8:	f1080000 	call	f108000 <nasys_stack_top+0xe908000>
     ecc:	78000000 	call	7800000 <nasys_stack_top+0x7000000>
     ed0:	09000001 	jmpi	900000 <nasys_stack_top+0x100000>
     ed4:	000000ad 	sthio	zero,2(zero)
     ed8:	200d0000 	call	200d000 <nasys_stack_top+0x180d000>
     edc:	24000003 	ldbu	r16,0(r4)
     ee0:	02033404 	movi	r8,3280
     ee4:	3f0b0000 	call	3f0b000 <nasys_stack_top+0x370b000>
     ee8:	04000002 	0x4000002
     eec:	00003936 	bltu	zero,zero,fd4 <_nasys_data_source_end+0x7ac>
     ef0:	00230200 	call	23020 <_gp+0x1a810>
     ef4:	0005610b 	ldhu	zero,5508(zero)
     ef8:	39370400 	call	3937040 <nasys_stack_top+0x3137040>
     efc:	02000000 	call	200000 <_gp+0x1f77f0>
     f00:	5a0b0423 	ldbuio	r8,11280(r11)
     f04:	04000002 	0x4000002
     f08:	00003938 	rdprs	zero,zero,228
     f0c:	08230200 	call	823020 <nasys_stack_top+0x23020>
     f10:	0006450b 	ldhu	zero,6420(zero)
     f14:	39390400 	call	3939040 <nasys_stack_top+0x3139040>
     f18:	02000000 	call	200000 <_gp+0x1f77f0>
     f1c:	330b0c23 	ldbuio	r12,11312(r6)
     f20:	04000004 	movi	r16,0
     f24:	0000393a 	mulxuu	zero,zero,zero
     f28:	10230200 	call	1023020 <nasys_stack_top+0x823020>
     f2c:	0004220b 	ldhu	zero,4232(zero)
     f30:	393b0400 	call	393b040 <nasys_stack_top+0x313b040>
     f34:	02000000 	call	200000 <_gp+0x1f77f0>
     f38:	d10b1423 	ldbuio	r4,11344(gp)
     f3c:	04000005 	stb	r16,0(zero)
     f40:	0000393c 	xorhi	zero,zero,228
     f44:	18230200 	call	1823020 <nasys_stack_top+0x1023020>
     f48:	0004810b 	ldhu	zero,4612(zero)
     f4c:	393d0400 	call	393d040 <nasys_stack_top+0x313d040>
     f50:	02000000 	call	200000 <_gp+0x1f77f0>
     f54:	0c0b1c23 	ldbuio	r16,11376(at)
     f58:	04000006 	br	f5c <_nasys_data_source_end+0x734>
     f5c:	0000393e 	0x393e
     f60:	20230200 	call	2023020 <nasys_stack_top+0x1823020>
     f64:	02691000 	call	269100 <_gp+0x2608f0>
     f68:	01080000 	call	108000 <_gp+0xff7f0>
     f6c:	024c4704 	movi	r9,12572
     f70:	d50b0000 	call	d50b000 <nasys_stack_top+0xcd0b000>
     f74:	04000002 	0x4000002
     f78:	00024c48 	cmpgei	zero,zero,2353
     f7c:	00230200 	call	23020 <_gp+0x1a810>
     f80:	0001d40b 	ldhu	zero,1872(zero)
     f84:	4c490400 	call	4c49040 <nasys_stack_top+0x4449040>
     f88:	03000002 	0x3000002
     f8c:	0b018023 	ldbuio	r12,1536(at)
     f90:	00000577 	ldwio	zero,21(zero)
     f94:	00f14b04 	movi	r3,-15060
     f98:	23030000 	call	2303000 <nasys_stack_top+0x1b03000>
     f9c:	8e0b0280 	call	8e0b028 <nasys_stack_top+0x860b028>
     fa0:	04000002 	0x4000002
     fa4:	0000f14e 	bge	zero,zero,136d <_nasys_data_source_end+0xb45>
     fa8:	84230300 	call	8423030 <nasys_stack_top+0x7c23030>
     fac:	ef080002 	0xef080002
     fb0:	5c000000 	call	5c00000 <nasys_stack_top+0x5400000>
     fb4:	09000002 	0x9000002
     fb8:	000000ad 	sthio	zero,2(zero)
     fbc:	3c10001f 	ldl	r16,16384(r7)
     fc0:	90000004 	addi	zero,r18,0
     fc4:	a3590401 	jmpi	a359040 <nasys_stack_top+0x9b59040>
     fc8:	0b000002 	0xb000002
     fcc:	000004b7 	ldwio	zero,18(zero)
     fd0:	02a35a04 	movi	r10,-29336
     fd4:	23020000 	call	2302000 <nasys_stack_top+0x1b02000>
     fd8:	04cf0b00 	call	4cf0b0 <_gp+0x4c68a0>
     fdc:	5b040000 	call	5b04000 <nasys_stack_top+0x5304000>
     fe0:	00000039 	0x39
     fe4:	0b042302 	0xb042302
     fe8:	000002dd 	stc	zero,11(zero)
     fec:	02a95d04 	movi	r10,-23180
     ff0:	23020000 	call	2302000 <nasys_stack_top+0x1b02000>
     ff4:	02690b08 	cmpgei	r9,zero,-23508
     ff8:	5e040000 	call	5e04000 <nasys_stack_top+0x5604000>
     ffc:	00000203 	ldbu	zero,8(zero)
    1000:	01882303 	ldbu	r6,8332(zero)
    1004:	5c040f00 	call	5c040f0 <nasys_stack_top+0x54040f0>
    1008:	08000002 	0x8000002
    100c:	000002bb 	flushd	10(zero)
    1010:	000002b9 	0x2b9
    1014:	0000ad09 	0xad09
    1018:	11001f00 	call	11001f0 <nasys_stack_top+0x9001f0>
    101c:	b9040f01 	jmpi	b9040f0 <nasys_stack_top+0xb1040f0>
    1020:	0d000002 	0xd000002
    1024:	0000048b 	ldhu	zero,18(zero)
    1028:	ea690408 	cmpgei	r9,ea,-23536
    102c:	0b000002 	0xb000002
    1030:	00000254 	movui	zero,9
    1034:	02ea6a04 	movi	r11,-22104
    1038:	23020000 	call	2302000 <nasys_stack_top+0x1b02000>
    103c:	01e00b00 	call	1e00b0 <_gp+0x1d78a0>
    1040:	6b040000 	call	6b04000 <nasys_stack_top+0x6304000>
    1044:	00000039 	0x39
    1048:	00042302 	0x42302
    104c:	0024040f 	ldh	zero,-28656(zero)
    1050:	aa0d0000 	call	aa0d000 <nasys_stack_top+0xa20d000>
    1054:	5c000004 	addi	r16,r11,0
    1058:	042ec404 	movi	r16,-17648
    105c:	5f0e0000 	call	5f0e000 <nasys_stack_top+0x570e000>
    1060:	c5040070 	cmpltui	r20,et,4097
    1064:	000002ea 	0x2ea
    1068:	0e002302 	0xe002302
    106c:	0400725f 	ldl	r16,457(zero)
    1070:	000039c6 	br	115b <_nasys_data_source_end+0x933>
    1074:	04230200 	call	423020 <_gp+0x41a810>
    1078:	00775f0e 	bge	zero,at,ffffedf8 <nasys_stack_top+0xff7fedf8>
    107c:	0039c704 	movi	zero,-6372
    1080:	23020000 	call	2302000 <nasys_stack_top+0x1b02000>
    1084:	02870b08 	cmpgei	r10,zero,7212
    1088:	c8040000 	call	c804000 <nasys_stack_top+0xc004000>
    108c:	0000002b 	ldhuio	zero,0(zero)
    1090:	0b0c2302 	0xb0c2302
    1094:	0000033c 	xorhi	zero,zero,12
    1098:	002bc904 	movi	zero,-20700
    109c:	23020000 	call	2302000 <nasys_stack_top+0x1b02000>
    10a0:	625f0e0e 	bge	r12,r9,8cdc <_gp+0x4cc>
    10a4:	ca040066 	beq	bt,r8,20a9 <_nasys_data_source_end+0x1881>
    10a8:	000002c1 	jmpi	2c <nasys_data_mem+0x2c>
    10ac:	0b102302 	0xb102302
    10b0:	00000219 	0x219
    10b4:	0039cb04 	movi	zero,-6356
    10b8:	23020000 	call	2302000 <nasys_stack_top+0x1b02000>
    10bc:	02770b18 	cmpnei	r9,zero,-9172
    10c0:	d2040000 	call	d204000 <nasys_stack_top+0xca04000>
    10c4:	000000ef 	ldhio	zero,3(zero)
    10c8:	0b1c2302 	0xb1c2302
    10cc:	00000310 	cmplti	zero,zero,12
    10d0:	05bed404 	movi	r22,-1200
    10d4:	23020000 	call	2302000 <nasys_stack_top+0x1b02000>
    10d8:	041b0b20 	cmpeqi	r16,zero,27692
    10dc:	d6040000 	call	d604000 <nasys_stack_top+0xce04000>
    10e0:	000005ee 	bgeu	zero,zero,10fb <_nasys_data_source_end+0x8d3>
    10e4:	0b242302 	0xb242302
    10e8:	00000513 	initda	20(zero)
    10ec:	0613d804 	movi	et,20320
    10f0:	23020000 	call	2302000 <nasys_stack_top+0x1b02000>
    10f4:	06260b28 	cmpgeui	et,zero,38956
    10f8:	d9040000 	call	d904000 <nasys_stack_top+0xd104000>
    10fc:	0000062e 	bgeu	zero,zero,1118 <_nasys_data_source_end+0x8f0>
    1100:	0e2c2302 	0xe2c2302
    1104:	0062755f 	ldl	at,-30251(zero)
    1108:	02c1dc04 	movi	r11,1904
    110c:	23020000 	call	2302000 <nasys_stack_top+0x1b02000>
    1110:	755f0e30 	cmpltui	r21,r14,31800
    1114:	dd040070 	cmpltui	r20,sp,4097
    1118:	000002ea 	0x2ea
    111c:	0e382302 	0xe382302
    1120:	0072755f 	ldl	at,-13867(zero)
    1124:	0039de04 	movi	zero,-6280
    1128:	23020000 	call	2302000 <nasys_stack_top+0x1b02000>
    112c:	024e0b3c 	xorhi	r9,zero,14380
    1130:	e1040000 	call	e104000 <nasys_stack_top+0xd904000>
    1134:	00000634 	movhi	zero,24
    1138:	0b402302 	0xb402302
    113c:	000005fe 	0x5fe
    1140:	0644e204 	movi	bt,5000
    1144:	23020000 	call	2302000 <nasys_stack_top+0x1b02000>
    1148:	6c5f0e43 	ldbu	r17,31801(r13)
    114c:	e5040062 	0xe5040062
    1150:	000002c1 	jmpi	2c <nasys_data_mem+0x2c>
    1154:	0b442302 	0xb442302
    1158:	0000029d 	stc	zero,10(zero)
    115c:	0039e804 	movi	zero,-6240
    1160:	23020000 	call	2302000 <nasys_stack_top+0x1b02000>
    1164:	02ae0b4c 	andi	r10,zero,47149
    1168:	e9040000 	call	e904000 <nasys_stack_top+0xe104000>
    116c:	00000039 	0x39
    1170:	0b502302 	0xb502302
    1174:	00000655 	stw	zero,25(zero)
    1178:	044dec04 	movi	r17,14256
    117c:	23020000 	call	2302000 <nasys_stack_top+0x1b02000>
    1180:	040f0b54 	movui	r16,15405
    1184:	f0040000 	call	f004000 <nasys_stack_top+0xe804000>
    1188:	000000e4 	muli	zero,zero,3
    118c:	00582302 	0x582302
    1190:	00390112 	0x390112
    1194:	044d0000 	call	44d000 <_gp+0x4447f0>
    1198:	4d130000 	call	4d13000 <nasys_stack_top+0x4513000>
    119c:	13000004 	addi	r12,r2,0
    11a0:	000000ef 	ldhio	zero,3(zero)
    11a4:	0005b113 	initda	5828(zero)
    11a8:	00391300 	call	39130 <_gp+0x30920>
    11ac:	0f000000 	call	f00000 <nasys_stack_top+0x700000>
    11b0:	00045304 	movi	zero,4428
    11b4:	04f61400 	call	4f6140 <_gp+0x4ed930>
    11b8:	04000000 	call	400000 <_gp+0x3f77f0>
    11bc:	b1029d04 	addi	r4,r22,2676
    11c0:	15000005 	stb	r20,0(r2)
    11c4:	00000521 	0x521
    11c8:	39029f04 	addi	r4,r7,2684
    11cc:	02000000 	call	200000 <_gp+0x1f77f0>
    11d0:	96150023 	ldbuio	et,21504(r18)
    11d4:	04000002 	0x4000002
    11d8:	06a102a4 	muli	gp,zero,-31734
    11dc:	23020000 	call	2302000 <nasys_stack_top+0x1b02000>
    11e0:	032c1504 	movi	r12,-20396
    11e4:	a4040000 	call	a404000 <nasys_stack_top+0x9c04000>
    11e8:	0006a102 	0x6a102
    11ec:	08230200 	call	823020 <nasys_stack_top+0x23020>
    11f0:	0002f115 	stw	zero,3012(zero)
    11f4:	02a40400 	call	2a4040 <_gp+0x29b830>
    11f8:	000006a1 	0x6a1
    11fc:	150c2302 	0x150c2302
    1200:	000004ca 	0x4ca
    1204:	3902a604 	addi	r4,r7,2712
    1208:	02000000 	call	200000 <_gp+0x1f77f0>
    120c:	ee151023 	ldbuio	et,21568(ea)
    1210:	04000001 	jmpi	400000 <_gp+0x3f77f0>
    1214:	08ab02a7 	ldbio	r2,-21494(at)
    1218:	23020000 	call	2302000 <nasys_stack_top+0x1b02000>
    121c:	05ad1514 	movui	r22,46164
    1220:	a9040000 	call	a904000 <nasys_stack_top+0xa104000>
    1224:	00003902 	0x3902
    1228:	30230200 	call	3023020 <nasys_stack_top+0x2823020>
    122c:	0004d415 	stw	zero,4944(zero)
    1230:	02aa0400 	call	2aa040 <_gp+0x2a1830>
    1234:	000005e3 	ldbuio	zero,23(zero)
    1238:	15342302 	0x15342302
    123c:	00000444 	movi	zero,17
    1240:	3902ac04 	addi	r4,r7,2736
    1244:	02000000 	call	200000 <_gp+0x1f77f0>
    1248:	e4153823 	ldbuio	r16,21728(fp)
    124c:	04000004 	movi	r16,0
    1250:	08c702ae 	bgeu	at,r3,2e5e <_nasys_data_source_end+0x2636>
    1254:	23020000 	call	2302000 <nasys_stack_top+0x1b02000>
    1258:	036b153c 	xorhi	r13,zero,44116
    125c:	b1040000 	call	b104000 <nasys_stack_top+0xa904000>
    1260:	00016202 	0x16202
    1264:	40230200 	call	4023020 <nasys_stack_top+0x3823020>
    1268:	00031615 	stw	zero,3160(zero)
    126c:	02b20400 	call	2b2040 <_gp+0x2a9830>
    1270:	00000039 	0x39
    1274:	15442302 	0x15442302
    1278:	00000640 	call	64 <sumthree+0x34>
    127c:	6202b304 	addi	r8,r12,2764
    1280:	02000001 	jmpi	200000 <_gp+0x1f77f0>
    1284:	60154823 	ldbuio	zero,21792(r12)
    1288:	04000004 	movi	r16,0
    128c:	08cd02b4 	orhi	r3,at,13322
    1290:	23020000 	call	2302000 <nasys_stack_top+0x1b02000>
    1294:	0334154c 	andi	r12,zero,53333
    1298:	b7040000 	call	b704000 <nasys_stack_top+0xaf04000>
    129c:	00003902 	0x3902
    12a0:	50230200 	call	5023020 <nasys_stack_top+0x4823020>
    12a4:	0002a615 	stw	zero,2712(zero)
    12a8:	02b80400 	call	2b8040 <_gp+0x2af830>
    12ac:	000005b1 	0x5b1
    12b0:	15542302 	0x15542302
    12b4:	0000047c 	xorhi	zero,zero,17
    12b8:	8902da04 	addi	r4,r17,2920
    12bc:	02000008 	cmpgei	r8,zero,0
    12c0:	3c155823 	ldbuio	r16,21856(r7)
    12c4:	04000004 	movi	r16,0
    12c8:	02a302dd 	stc	r10,-29685(zero)
    12cc:	23030000 	call	2303000 <nasys_stack_top+0x1b03000>
    12d0:	491502c8 	cmpgei	r4,r9,21515
    12d4:	04000003 	ldbu	r16,0(zero)
    12d8:	025c02de 	bne	zero,r9,82e7 <_nasys_data_source_end+0x7abf>
    12dc:	23030000 	call	2303000 <nasys_stack_top+0x1b03000>
    12e0:	f41502cc 	andi	r16,ba,21515
    12e4:	04000005 	stb	r16,0(zero)
    12e8:	08df02e1 	0x8df02e1
    12ec:	23030000 	call	2303000 <nasys_stack_top+0x1b03000>
    12f0:	7f1505dc 	xori	fp,r15,21527
    12f4:	04000002 	0x4000002
    12f8:	066002e6 	beq	zero,bt,ffff9307 <nasys_stack_top+0xff7f9307>
    12fc:	23030000 	call	2303000 <nasys_stack_top+0x1b03000>
    1300:	641505e0 	cmpeqi	r16,r12,21527
    1304:	04000002 	0x4000002
    1308:	08eb02e7 	ldbio	r3,-21493(at)
    130c:	23030000 	call	2303000 <nasys_stack_top+0x1b03000>
    1310:	0f0005ec 	andhi	fp,at,23
    1314:	0005b704 	movi	zero,5852
    1318:	06010200 	call	601020 <_gp+0x5f8810>
    131c:	0000017e 	0x17e
    1320:	042e040f 	ldh	r16,-18416(zero)
    1324:	01120000 	call	112000 <_gp+0x1097f0>
    1328:	00000039 	0x39
    132c:	000005e3 	ldbuio	zero,23(zero)
    1330:	00044d13 	initda	4404(zero)
    1334:	00ef1300 	call	ef130 <_gp+0xe6920>
    1338:	e3130000 	call	e313000 <nasys_stack_top+0xdb13000>
    133c:	13000005 	stb	r12,0(r2)
    1340:	00000039 	0x39
    1344:	e9040f00 	call	e9040f0 <nasys_stack_top+0xe1040f0>
    1348:	16000005 	stb	et,0(r2)
    134c:	000005b7 	ldwio	zero,22(zero)
    1350:	05c4040f 	ldh	r23,4112(zero)
    1354:	01120000 	call	112000 <_gp+0x1097f0>
    1358:	00000067 	ldbio	zero,1(zero)
    135c:	00000613 	initda	24(zero)
    1360:	00044d13 	initda	4404(zero)
    1364:	00ef1300 	call	ef130 <_gp+0xe6920>
    1368:	67130000 	call	6713000 <nasys_stack_top+0x5f13000>
    136c:	13000000 	call	1300000 <nasys_stack_top+0xb00000>
    1370:	00000039 	0x39
    1374:	f4040f00 	call	f4040f0 <nasys_stack_top+0xec040f0>
    1378:	12000005 	stb	r8,0(r2)
    137c:	00003901 	jmpi	390 <_exit+0x24>
    1380:	00062e00 	call	62e0 <_nasys_data_source_end+0x5ab8>
    1384:	044d1300 	call	44d130 <_gp+0x444920>
    1388:	ef130000 	call	ef13000 <nasys_stack_top+0xe713000>
    138c:	00000000 	call	0 <nasys_data_mem>
    1390:	0619040f 	ldh	et,25616(zero)
    1394:	24080000 	call	2408000 <nasys_stack_top+0x1c08000>
    1398:	44000000 	call	4400000 <nasys_stack_top+0x3c00000>
    139c:	09000006 	br	13a0 <_nasys_data_source_end+0xb78>
    13a0:	000000ad 	sthio	zero,2(zero)
    13a4:	24080002 	0x24080002
    13a8:	54000000 	call	5400000 <nasys_stack_top+0x4c00000>
    13ac:	09000006 	br	13b0 <_nasys_data_source_end+0xb88>
    13b0:	000000ad 	sthio	zero,2(zero)
    13b4:	98050000 	call	9805000 <nasys_stack_top+0x9005000>
    13b8:	04000004 	movi	r16,0
    13bc:	02f00130 	cmpltui	r11,zero,49156
    13c0:	db170000 	call	db17000 <nasys_stack_top+0xd317000>
    13c4:	0c000005 	stb	r16,0(at)
    13c8:	9b013504 	addi	r12,r19,1236
    13cc:	15000006 	br	13d0 <_nasys_data_source_end+0xba8>
    13d0:	000004b7 	ldwio	zero,18(zero)
    13d4:	9b013704 	addi	r12,r19,1244
    13d8:	02000006 	br	13dc <_nasys_data_source_end+0xbb4>
    13dc:	42150023 	ldbuio	r8,21504(r8)
    13e0:	04000003 	ldbu	r16,0(zero)
    13e4:	00390138 	rdprs	zero,zero,-7164
    13e8:	23020000 	call	2302000 <nasys_stack_top+0x1b02000>
    13ec:	04921504 	movi	r18,18516
    13f0:	39040000 	call	3904000 <nasys_stack_top+0x3104000>
    13f4:	0006a101 	jmpi	6a10 <_nasys_data_source_end+0x61e8>
    13f8:	08230200 	call	823020 <nasys_stack_top+0x23020>
    13fc:	60040f00 	call	60040f0 <nasys_stack_top+0x58040f0>
    1400:	0f000006 	br	1404 <_nasys_data_source_end+0xbdc>
    1404:	00065404 	movi	zero,6480
    1408:	01e61700 	call	1e6170 <_gp+0x1dd960>
    140c:	040e0000 	call	40e000 <_gp+0x4057f0>
    1410:	06e20151 	0x6e20151
    1414:	fd150000 	call	fd15000 <nasys_stack_top+0xf515000>
    1418:	04000004 	movi	r16,0
    141c:	06e20152 	0x6e20152
    1420:	23020000 	call	2302000 <nasys_stack_top+0x1b02000>
    1424:	04151500 	call	415150 <_gp+0x40c940>
    1428:	53040000 	call	5304000 <nasys_stack_top+0x4b04000>
    142c:	0006e201 	jmpi	6e20 <_nasys_data_source_end+0x65f8>
    1430:	06230200 	call	623020 <_gp+0x61a810>
    1434:	00058015 	stw	zero,5632(zero)
    1438:	01540400 	call	154040 <_gp+0x14b830>
    143c:	00000032 	custom	0,c0,c0,c0
    1440:	000c2302 	0xc2302
    1444:	00003208 	cmpgei	zero,zero,200
    1448:	0006f200 	call	6f20 <_nasys_data_source_end+0x66f8>
    144c:	00ad0900 	call	ad090 <_gp+0xa4880>
    1450:	00020000 	call	2000 <_nasys_data_source_end+0x17d8>
    1454:	bc04c818 	cmpnei	r16,r23,4896
    1458:	00081102 	0x81102
    145c:	05bf1500 	call	5bf150 <_gp+0x5b6940>
    1460:	be040000 	call	be04000 <nasys_stack_top+0xb604000>
    1464:	00004002 	0x4002
    1468:	00230200 	call	23020 <_gp+0x1a810>
    146c:	00056a15 	stw	zero,5544(zero)
    1470:	02bf0400 	call	2bf040 <_gp+0x2b6830>
    1474:	000005b1 	0x5b1
    1478:	15042302 	0x15042302
    147c:	0000035e 	bne	zero,zero,148d <_nasys_data_source_end+0xc65>
    1480:	1102c004 	addi	r4,r2,2816
    1484:	02000008 	cmpgei	r8,zero,0
    1488:	17150823 	ldbuio	fp,21536(r2)
    148c:	04000006 	br	1490 <_nasys_data_source_end+0xc68>
    1490:	017802c1 	jmpi	17802c <_gp+0x16f81c>
    1494:	23020000 	call	2302000 <nasys_stack_top+0x1b02000>
    1498:	03011524 	muli	r12,zero,1108
    149c:	c2040000 	call	c204000 <nasys_stack_top+0xba04000>
    14a0:	00003902 	0x3902
    14a4:	48230200 	call	4823020 <nasys_stack_top+0x4023020>
    14a8:	0004b215 	stw	zero,4808(zero)
    14ac:	02c30400 	call	2c3040 <_gp+0x2ba830>
    14b0:	0000004e 	bge	zero,zero,14b5 <_nasys_data_source_end+0xc8d>
    14b4:	154c2302 	0x154c2302
    14b8:	0000062d 	sthio	zero,24(zero)
    14bc:	a702c404 	addi	fp,r20,2832
    14c0:	02000006 	br	14c4 <_nasys_data_source_end+0xc9c>
    14c4:	bd155423 	ldbuio	r20,21840(r23)
    14c8:	04000004 	movi	r16,0
    14cc:	00d902c5 	stb	r3,25611(zero)
    14d0:	23020000 	call	2302000 <nasys_stack_top+0x1b02000>
    14d4:	06321564 	muli	et,zero,-14251
    14d8:	c6040000 	call	c604000 <nasys_stack_top+0xbe04000>
    14dc:	0000d902 	0xd902
    14e0:	6c230200 	call	6c23020 <nasys_stack_top+0x6423020>
    14e4:	00023115 	stw	zero,2244(zero)
    14e8:	02c70400 	call	2c7040 <_gp+0x2be830>
    14ec:	000000d9 	0xd9
    14f0:	15742302 	0x15742302
    14f4:	000005ea 	0x5ea
    14f8:	2102c804 	addi	r4,r4,2848
    14fc:	02000008 	cmpgei	r8,zero,0
    1500:	52157c23 	ldbuio	r8,22000(r10)
    1504:	04000003 	ldbu	r16,0(zero)
    1508:	083102c9 	0x83102c9
    150c:	23030000 	call	2303000 <nasys_stack_top+0x1b03000>
    1510:	8d150184 	addi	r20,r17,21510
    1514:	04000005 	stb	r16,0(zero)
    1518:	003902ca 	0x3902ca
    151c:	23030000 	call	2303000 <nasys_stack_top+0x1b03000>
    1520:	c715019c 	xori	fp,et,21510
    1524:	04000002 	0x4000002
    1528:	00d902cb 	ldhu	r3,25611(zero)
    152c:	23030000 	call	2303000 <nasys_stack_top+0x1b03000>
    1530:	221501a0 	cmpeqi	r8,r4,21510
    1534:	04000002 	0x4000002
    1538:	00d902cc 	andi	r3,zero,25611
    153c:	23030000 	call	2303000 <nasys_stack_top+0x1b03000>
    1540:	b61501a8 	cmpgeui	et,r22,21510
    1544:	04000002 	0x4000002
    1548:	00d902cd 	sth	r3,25611(zero)
    154c:	23030000 	call	2303000 <nasys_stack_top+0x1b03000>
    1550:	f91501b0 	cmpltui	r4,ra,21510
    1554:	04000001 	jmpi	400000 <_gp+0x3f77f0>
    1558:	00d902ce 	bge	zero,r3,7967 <_nasys_data_source_end+0x713f>
    155c:	23030000 	call	2303000 <nasys_stack_top+0x1b03000>
    1560:	081501b8 	rdprs	zero,at,21510
    1564:	04000002 	0x4000002
    1568:	00d902cf 	ldh	r3,25611(zero)
    156c:	23030000 	call	2303000 <nasys_stack_top+0x1b03000>
    1570:	080001c0 	call	80001c <nasys_stack_top+0x1c>
    1574:	000005b7 	ldwio	zero,22(zero)
    1578:	00000821 	0x821
    157c:	0000ad09 	0xad09
    1580:	08001900 	call	800190 <nasys_stack_top+0x190>
    1584:	000005b7 	ldwio	zero,22(zero)
    1588:	00000831 	0x831
    158c:	0000ad09 	0xad09
    1590:	08000700 	call	800070 <nasys_stack_top+0x70>
    1594:	000005b7 	ldwio	zero,22(zero)
    1598:	00000841 	jmpi	84 <__start_2+0x14>
    159c:	0000ad09 	0xad09
    15a0:	18001700 	call	1800170 <nasys_stack_top+0x1000170>
    15a4:	02d404f0 	cmpltui	r11,zero,20499
    15a8:	00000869 	0x869
    15ac:	00042c15 	stw	zero,4272(zero)
    15b0:	02d70400 	call	2d7040 <_gp+0x2ce830>
    15b4:	00000869 	0x869
    15b8:	15002302 	0x15002302
    15bc:	000005e1 	0x5e1
    15c0:	7902d804 	addi	r4,r15,2912
    15c4:	02000008 	cmpgei	r8,zero,0
    15c8:	08007823 	ldbuio	zero,480(at)
    15cc:	000002ea 	0x2ea
    15d0:	00000879 	0x879
    15d4:	0000ad09 	0xad09
    15d8:	08001d00 	call	8001d0 <nasys_stack_top+0x1d0>
    15dc:	00000040 	call	4 <nasys_data_mem+0x4>
    15e0:	00000889 	0x889
    15e4:	0000ad09 	0xad09
    15e8:	19001d00 	call	19001d0 <nasys_stack_top+0x11001d0>
    15ec:	02ba04f0 	cmpltui	r10,zero,59411
    15f0:	000008ab 	ldhuio	zero,34(zero)
    15f4:	0004f61a 	0x4f61a
    15f8:	02d00400 	call	2d0040 <_gp+0x2c7830>
    15fc:	000006f2 	custom	27,c0,c0,c0
    1600:	0006041a 	0x6041a
    1604:	02d90400 	call	2d9040 <_gp+0x2d0830>
    1608:	00000841 	jmpi	84 <__start_2+0x14>
    160c:	05b70800 	call	5b7080 <_gp+0x5ae870>
    1610:	08bb0000 	call	8bb000 <nasys_stack_top+0xbb000>
    1614:	ad090000 	call	ad09000 <nasys_stack_top+0xa509000>
    1618:	18000000 	call	1800000 <nasys_stack_top+0x1000000>
    161c:	c7011b00 	call	c7011b0 <nasys_stack_top+0xbf011b0>
    1620:	13000008 	cmpgei	r12,r2,0
    1624:	0000044d 	sth	zero,17(zero)
    1628:	bb040f00 	call	bb040f0 <nasys_stack_top+0xb3040f0>
    162c:	0f000008 	cmpgei	fp,at,0
    1630:	00016204 	movi	zero,1416
    1634:	df011b00 	call	df011b0 <nasys_stack_top+0xd7011b0>
    1638:	13000008 	cmpgei	r12,r2,0
    163c:	00000039 	0x39
    1640:	e5040f00 	call	e5040f0 <nasys_stack_top+0xdd040f0>
    1644:	0f000008 	cmpgei	fp,at,0
    1648:	0008d304 	movi	zero,9036
    164c:	06540800 	call	654080 <_gp+0x64b870>
    1650:	08fb0000 	call	8fb000 <nasys_stack_top+0xfb000>
    1654:	ad090000 	call	ad09000 <nasys_stack_top+0xa509000>
    1658:	02000000 	call	200000 <_gp+0x1f77f0>
    165c:	064f1c00 	call	64f1c0 <_gp+0x6469b0>
    1660:	17050000 	call	1705000 <nasys_stack_top+0xf05000>
    1664:	00000453 	initda	17(zero)
    1668:	04200305 	stb	r16,-32756(zero)
    166c:	a11d0000 	call	a11d000 <nasys_stack_top+0x991d000>
    1670:	04000005 	stb	r16,0(zero)
    1674:	044d0385 	stb	r17,13326(zero)
    1678:	05010000 	call	501000 <_gp+0x4f87f0>
    167c:	00082403 	ldbu	zero,8336(zero)
    1680:	059a1d00 	call	59a1d0 <_gp+0x5919c0>
    1684:	86040000 	call	8604000 <nasys_stack_top+0x7e04000>
    1688:	00093203 	ldbu	zero,9416(zero)
    168c:	03050100 	call	305010 <_gp+0x2fc800>
    1690:	00000820 	cmpeqi	zero,zero,32
    1694:	00044d16 	blt	zero,zero,27cc <_nasys_data_source_end+0x1fa4>
    1698:	01130000 	call	113000 <_gp+0x10a7f0>
    169c:	00020000 	call	2000 <_nasys_data_source_end+0x17d8>
    16a0:	00000550 	cmplti	zero,zero,21
    16a4:	00070104 	movi	zero,7172
    16a8:	c6010000 	call	c601000 <nasys_stack_top+0xbe01000>
    16ac:	30000007 	ldb	zero,0(r6)
    16b0:	ec000007 	ldb	r16,0(ea)
    16b4:	c8000000 	call	c800000 <nasys_stack_top+0xc000000>
    16b8:	47000001 	jmpi	4700000 <nasys_stack_top+0x3f00000>
    16bc:	02000006 	br	16c0 <_nasys_data_source_end+0xe98>
    16c0:	01770601 	jmpi	177060 <_gp+0x16e850>
    16c4:	01020000 	call	102000 <_gp+0xf97f0>
    16c8:	00017508 	cmpgei	zero,zero,1492
    16cc:	05020200 	call	502020 <_gp+0x4f9810>
    16d0:	00000183 	ldbu	zero,6(zero)
    16d4:	44070202 	0x44070202
    16d8:	03000001 	jmpi	300000 <_gp+0x2f77f0>
    16dc:	6e690504 	addi	bt,r13,-23532
    16e0:	04020074 	movhi	r16,2049
    16e4:	00016807 	ldb	zero,1440(zero)
    16e8:	05080200 	call	508020 <_gp+0x4ff810>
    16ec:	00000136 	bltu	zero,zero,16f4 <_nasys_data_source_end+0xecc>
    16f0:	5e070802 	0x5e070802
    16f4:	02000001 	jmpi	200000 <_gp+0x1f77f0>
    16f8:	013b0504 	movi	r4,-5100
    16fc:	04020000 	call	402000 <_gp+0x3f97f0>
    1700:	00019407 	ldb	zero,1616(zero)
    1704:	02040400 	call	204040 <_gp+0x1fb830>
    1708:	01630704 	movi	r5,-29668
    170c:	04050000 	call	405000 <_gp+0x3fc7f0>
    1710:	0000007a 	0x7a
    1714:	7e060102 	0x7e060102
    1718:	06000001 	jmpi	600000 <_gp+0x5f77f0>
    171c:	00000157 	ldw	zero,5(zero)
    1720:	0048d503 	ldbu	at,9044(zero)
    1724:	01070000 	call	107000 <_gp+0xfe7f0>
    1728:	0000018d 	sth	zero,6(zero)
    172c:	6b011a02 	0x6b011a02
    1730:	ec000000 	call	ec00000 <nasys_stack_top+0xe400000>
    1734:	c8000000 	call	c800000 <nasys_stack_top+0xc000000>
    1738:	02000001 	jmpi	200000 <_gp+0x1f77f0>
    173c:	1001008b 	ldhu	zero,1026(r2)
    1740:	08000001 	jmpi	800000 <nasys_stack_top>
    1744:	2b01006d 	sthio	r12,1025(r5)
    1748:	0000006b 	ldhuio	zero,1(zero)
    174c:	00000119 	0x119
    1750:	01006308 	cmpgei	r4,zero,396
    1754:	0000412b 	ldhuio	zero,260(zero)
    1758:	00013700 	call	1370 <_nasys_data_source_end+0xb48>
    175c:	006e0800 	call	6e080 <_gp+0x65870>
    1760:	00812b01 	jmpi	812b0 <_gp+0x78aa0>
    1764:	01580000 	call	158000 <_gp+0x14f7f0>
    1768:	73090000 	call	7309000 <nasys_stack_top+0x6b09000>
    176c:	743a0100 	call	743a010 <nasys_stack_top+0x6c3a010>
    1770:	ec000000 	call	ec00000 <nasys_stack_top+0xe400000>
    1774:	0a000001 	jmpi	a00000 <nasys_stack_top+0x200000>
    1778:	3b010069 	0x3b010069
    177c:	00000041 	jmpi	4 <nasys_data_mem+0x4>
    1780:	0007bf0b 	ldhu	zero,7932(zero)
    1784:	6d3c0100 	call	6d3c010 <nasys_stack_top+0x653c010>
    1788:	41000000 	call	4100000 <nasys_stack_top+0x3900000>
    178c:	0b000002 	0xb000002
    1790:	00000723 	ldbuio	zero,28(zero)
    1794:	01103d01 	jmpi	1103d0 <_gp+0x107bc0>
    1798:	025f0000 	call	25f000 <_gp+0x2567f0>
    179c:	640c0000 	call	640c000 <nasys_stack_top+0x5c0c000>
    17a0:	483e0100 	call	483e010 <nasys_stack_top+0x403e010>
    17a4:	01000000 	call	100000 <_gp+0xf77f0>
    17a8:	04050055 	stw	r16,5121(zero)
    17ac:	0000006d 	sthio	zero,1(zero)
    17b0:	000a0300 	call	a030 <_gp+0x1820>
    17b4:	fc000200 	call	fc00020 <nasys_stack_top+0xf400020>
    17b8:	04000005 	stb	r16,0(zero)
    17bc:	00000701 	jmpi	70 <__start_2>
    17c0:	08010100 	call	801010 <nasys_stack_top+0x1010>
    17c4:	03800000 	call	380000 <_gp+0x3777f0>
    17c8:	01c80000 	call	1c8000 <_gp+0x1bf7f0>
    17cc:	03680000 	call	368000 <_gp+0x35f7f0>
    17d0:	08380000 	call	838000 <nasys_stack_top+0x38000>
    17d4:	04020000 	call	402000 <_gp+0x3f97f0>
    17d8:	00016807 	ldb	zero,1440(zero)
    17dc:	05040300 	call	504030 <_gp+0x4fb820>
    17e0:	00746e69 	0x746e69
    17e4:	77060102 	0x77060102
    17e8:	02000001 	jmpi	200000 <_gp+0x1f77f0>
    17ec:	01750801 	jmpi	175080 <_gp+0x16c870>
    17f0:	02020000 	call	202000 <_gp+0x1f97f0>
    17f4:	00018305 	stb	zero,1548(zero)
    17f8:	07020200 	call	702020 <_gp+0x6f9810>
    17fc:	00000144 	movi	zero,5
    1800:	36050802 	0x36050802
    1804:	02000001 	jmpi	200000 <_gp+0x1f77f0>
    1808:	015e0708 	cmpgei	r5,zero,30748
    180c:	6a040000 	call	6a04000 <nasys_stack_top+0x6204000>
    1810:	02000004 	movi	r8,0
    1814:	00002c07 	ldb	zero,176(zero)
    1818:	05040200 	call	504020 <_gp+0x4fb810>
    181c:	0000013b 	flushd	4(zero)
    1820:	00051904 	movi	zero,5220
    1824:	682c0300 	call	682c030 <nasys_stack_top+0x602c030>
    1828:	05000000 	call	500000 <_gp+0x4f77f0>
    182c:	00000379 	0x379
    1830:	25016204 	addi	r20,r4,1416
    1834:	06000000 	call	600000 <_gp+0x5f77f0>
    1838:	a5460304 	addi	r21,r20,6156
    183c:	07000000 	call	700000 <_gp+0x6f77f0>
    1840:	00000373 	initd	13(zero)
    1844:	007a4803 	ldbu	at,-5856(zero)
    1848:	25070000 	call	2507000 <nasys_stack_top+0x1d07000>
    184c:	03000003 	ldbu	r12,0(zero)
    1850:	0000a549 	0xa549
    1854:	3a080000 	call	3a08000 <nasys_stack_top+0x3208000>
    1858:	b5000000 	call	b500000 <nasys_stack_top+0xad00000>
    185c:	09000000 	call	900000 <nasys_stack_top+0x100000>
    1860:	000000b5 	stwio	zero,2(zero)
    1864:	04020003 	ldbu	r16,2048(zero)
    1868:	00019407 	ldb	zero,1616(zero)
    186c:	03080a00 	call	3080a0 <_gp+0x2ff890>
    1870:	0000e143 	ldbu	zero,901(zero)
    1874:	05030b00 	call	5030b0 <_gp+0x4fa8a0>
    1878:	45030000 	call	4503000 <nasys_stack_top+0x3d03000>
    187c:	0000002c 	andhi	zero,zero,0
    1880:	0b002302 	0xb002302
    1884:	0000050b 	ldhu	zero,20(zero)
    1888:	00864a03 	ldbu	r2,6440(zero)
    188c:	23020000 	call	2302000 <nasys_stack_top+0x1b02000>
    1890:	9f040004 	addi	fp,r19,4096
    1894:	03000004 	movi	r12,0
    1898:	0000bc4b 	ldhu	zero,753(zero)
    189c:	02e80400 	call	2e8040 <_gp+0x2df830>
    18a0:	4f030000 	call	4f03000 <nasys_stack_top+0x4703000>
    18a4:	0000005d 	stc	zero,1(zero)
    18a8:	8504040c 	andi	r20,r16,4112
    18ac:	05000005 	stb	r20,0(zero)
    18b0:	00010415 	stw	zero,1040(zero)
    18b4:	07040200 	call	704020 <_gp+0x6fb810>
    18b8:	00000163 	ldbuio	zero,5(zero)
    18bc:	0002f90d 	sth	zero,3044(zero)
    18c0:	2c051800 	call	2c05180 <nasys_stack_top+0x2405180>
    18c4:	0000016a 	0x16a
    18c8:	0004b70b 	ldhu	zero,4828(zero)
    18cc:	6a2e0500 	call	6a2e050 <nasys_stack_top+0x622e050>
    18d0:	02000001 	jmpi	200000 <_gp+0x1f77f0>
    18d4:	5f0e0023 	ldbuio	fp,14336(r11)
    18d8:	2f05006b 	ldhuio	fp,5121(r5)
    18dc:	0000002c 	andhi	zero,zero,0
    18e0:	0b042302 	0xb042302
    18e4:	000004ee 	bgeu	zero,zero,18fb <_nasys_data_source_end+0x10d3>
    18e8:	002c2f05 	stb	zero,-20292(zero)
    18ec:	23020000 	call	2302000 <nasys_stack_top+0x1b02000>
    18f0:	02e20b08 	cmpgei	r11,zero,-30676
    18f4:	2f050000 	call	2f05000 <nasys_stack_top+0x2705000>
    18f8:	0000002c 	andhi	zero,zero,0
    18fc:	0b0c2302 	0xb0c2302
    1900:	000005cc 	andi	zero,zero,23
    1904:	002c2f05 	stb	zero,-20292(zero)
    1908:	23020000 	call	2302000 <nasys_stack_top+0x1b02000>
    190c:	785f0e10 	cmplti	at,r15,31800
    1910:	70300500 	call	7030050 <nasys_stack_top+0x6830050>
    1914:	02000001 	jmpi	200000 <_gp+0x1f77f0>
    1918:	0f001423 	ldbuio	fp,80(at)
    191c:	00010b04 	movi	zero,1068
    1920:	00f90800 	call	f9080 <_gp+0xf0870>
    1924:	01800000 	call	180000 <_gp+0x1777f0>
    1928:	b5090000 	call	b509000 <nasys_stack_top+0xad09000>
    192c:	00000000 	call	0 <nasys_data_mem>
    1930:	03200d00 	call	3200d0 <_gp+0x3178c0>
    1934:	05240000 	call	524000 <_gp+0x51b7f0>
    1938:	00020b34 	movhi	zero,2092
    193c:	023f0b00 	call	23f0b0 <_gp+0x2368a0>
    1940:	36050000 	call	3605000 <nasys_stack_top+0x2e05000>
    1944:	0000002c 	andhi	zero,zero,0
    1948:	0b002302 	0xb002302
    194c:	00000561 	0x561
    1950:	002c3705 	stb	zero,-20260(zero)
    1954:	23020000 	call	2302000 <nasys_stack_top+0x1b02000>
    1958:	025a0b04 	movi	r9,26668
    195c:	38050000 	call	3805000 <nasys_stack_top+0x3005000>
    1960:	0000002c 	andhi	zero,zero,0
    1964:	0b082302 	0xb082302
    1968:	00000645 	stb	zero,25(zero)
    196c:	002c3905 	stb	zero,-20252(zero)
    1970:	23020000 	call	2302000 <nasys_stack_top+0x1b02000>
    1974:	04330b0c 	andi	r16,zero,52268
    1978:	3a050000 	call	3a05000 <nasys_stack_top+0x3205000>
    197c:	0000002c 	andhi	zero,zero,0
    1980:	0b102302 	0xb102302
    1984:	00000422 	0x422
    1988:	002c3b05 	stb	zero,-20244(zero)
    198c:	23020000 	call	2302000 <nasys_stack_top+0x1b02000>
    1990:	05d10b14 	movui	r23,17452
    1994:	3c050000 	call	3c05000 <nasys_stack_top+0x3405000>
    1998:	0000002c 	andhi	zero,zero,0
    199c:	0b182302 	0xb182302
    19a0:	00000481 	jmpi	48 <sumthree+0x18>
    19a4:	002c3d05 	stb	zero,-20236(zero)
    19a8:	23020000 	call	2302000 <nasys_stack_top+0x1b02000>
    19ac:	060c0b1c 	xori	et,zero,12332
    19b0:	3e050000 	call	3e05000 <nasys_stack_top+0x3605000>
    19b4:	0000002c 	andhi	zero,zero,0
    19b8:	00202302 	0x202302
    19bc:	00026910 	cmplti	zero,zero,2468
    19c0:	05010800 	call	501080 <_gp+0x4f8870>
    19c4:	00025447 	ldb	zero,2385(zero)
    19c8:	02d50b00 	call	2d50b0 <_gp+0x2cc8a0>
    19cc:	48050000 	call	4805000 <nasys_stack_top+0x4005000>
    19d0:	00000254 	movui	zero,9
    19d4:	0b002302 	0xb002302
    19d8:	000001d4 	movui	zero,7
    19dc:	02544905 	stb	r9,20772(zero)
    19e0:	23030000 	call	2303000 <nasys_stack_top+0x1b03000>
    19e4:	770b0180 	call	770b018 <nasys_stack_top+0x6f0b018>
    19e8:	05000005 	stb	r20,0(zero)
    19ec:	0000f94b 	ldhu	zero,997(zero)
    19f0:	80230300 	call	8023030 <nasys_stack_top+0x7823030>
    19f4:	028e0b02 	0x28e0b02
    19f8:	4e050000 	call	4e05000 <nasys_stack_top+0x4605000>
    19fc:	000000f9 	0xf9
    1a00:	02842303 	ldbu	r10,4236(zero)
    1a04:	00f70800 	call	f7080 <_gp+0xee870>
    1a08:	02640000 	call	264000 <_gp+0x25b7f0>
    1a0c:	b5090000 	call	b509000 <nasys_stack_top+0xad09000>
    1a10:	1f000000 	call	1f00000 <nasys_stack_top+0x1700000>
    1a14:	043c1000 	call	43c100 <_gp+0x4338f0>
    1a18:	01900000 	call	190000 <_gp+0x1877f0>
    1a1c:	02ab5905 	stb	r10,-21148(zero)
    1a20:	b70b0000 	call	b70b000 <nasys_stack_top+0xaf0b000>
    1a24:	05000004 	movi	r20,0
    1a28:	0002ab5a 	0x2ab5a
    1a2c:	00230200 	call	23020 <_gp+0x1a810>
    1a30:	0004cf0b 	ldhu	zero,4924(zero)
    1a34:	2c5b0500 	call	2c5b050 <nasys_stack_top+0x245b050>
    1a38:	02000000 	call	200000 <_gp+0x1f77f0>
    1a3c:	dd0b0423 	ldbuio	r20,11280(sp)
    1a40:	05000002 	0x5000002
    1a44:	0002b15d 	stc	zero,2757(zero)
    1a48:	08230200 	call	823020 <nasys_stack_top+0x23020>
    1a4c:	0002690b 	ldhu	zero,2468(zero)
    1a50:	0b5e0500 	call	b5e050 <nasys_stack_top+0x35e050>
    1a54:	03000002 	0x3000002
    1a58:	00018823 	ldbuio	zero,1568(zero)
    1a5c:	0264040f 	ldh	r9,-28656(zero)
    1a60:	c3080000 	call	c308000 <nasys_stack_top+0xbb08000>
    1a64:	c1000002 	0xc1000002
    1a68:	09000002 	0x9000002
    1a6c:	000000b5 	stwio	zero,2(zero)
    1a70:	0111001f 	ldl	r4,17408(zero)
    1a74:	02c1040f 	ldh	r11,1040(zero)
    1a78:	8b0d0000 	call	8b0d000 <nasys_stack_top+0x830d000>
    1a7c:	08000004 	addi	zero,at,0
    1a80:	02f26905 	stb	r11,-13916(zero)
    1a84:	540b0000 	call	540b000 <nasys_stack_top+0x4c0b000>
    1a88:	05000002 	0x5000002
    1a8c:	0002f26a 	0x2f26a
    1a90:	00230200 	call	23020 <_gp+0x1a810>
    1a94:	0001e00b 	ldhu	zero,1920(zero)
    1a98:	2c6b0500 	call	2c6b050 <nasys_stack_top+0x246b050>
    1a9c:	02000000 	call	200000 <_gp+0x1f77f0>
    1aa0:	0f000423 	ldbuio	fp,16(at)
    1aa4:	00003a04 	movi	zero,232
    1aa8:	04aa0d00 	call	4aa0d0 <_gp+0x4a18c0>
    1aac:	055c0000 	call	55c000 <_gp+0x5537f0>
    1ab0:	000436c4 	movi	zero,4315
    1ab4:	705f0e00 	call	705f0e0 <nasys_stack_top+0x685f0e0>
    1ab8:	f2c50500 	call	f2c5050 <nasys_stack_top+0xeac5050>
    1abc:	02000002 	0x2000002
    1ac0:	5f0e0023 	ldbuio	fp,14336(r11)
    1ac4:	c6050072 	custom	1,c2,et,c24
    1ac8:	0000002c 	andhi	zero,zero,0
    1acc:	0e042302 	0xe042302
    1ad0:	0500775f 	ldl	r20,477(zero)
    1ad4:	00002cc7 	ldb	zero,179(zero)
    1ad8:	08230200 	call	823020 <nasys_stack_top+0x23020>
    1adc:	0002870b 	ldhu	zero,2588(zero)
    1ae0:	41c80500 	call	41c8050 <nasys_stack_top+0x39c8050>
    1ae4:	02000000 	call	200000 <_gp+0x1f77f0>
    1ae8:	3c0b0c23 	ldbuio	r16,11312(r7)
    1aec:	05000003 	ldbu	r20,0(zero)
    1af0:	000041c9 	0x41c9
    1af4:	0e230200 	call	e23020 <nasys_stack_top+0x623020>
    1af8:	66625f0e 	bge	r12,bt,ffffa478 <nasys_stack_top+0xff7fa478>
    1afc:	c9ca0500 	call	c9ca050 <nasys_stack_top+0xc1ca050>
    1b00:	02000002 	0x2000002
    1b04:	190b1023 	ldbuio	r4,11328(r3)
    1b08:	05000002 	0x5000002
    1b0c:	00002ccb 	ldhu	zero,179(zero)
    1b10:	18230200 	call	1823020 <nasys_stack_top+0x1023020>
    1b14:	0002770b 	ldhu	zero,2524(zero)
    1b18:	f7d20500 	call	f7d2050 <nasys_stack_top+0xefd2050>
    1b1c:	02000000 	call	200000 <_gp+0x1f77f0>
    1b20:	100b1c23 	ldbuio	zero,11376(r2)
    1b24:	05000003 	ldbu	r20,0(zero)
    1b28:	0005c6d4 	movui	zero,5915
    1b2c:	20230200 	call	2023020 <nasys_stack_top+0x1823020>
    1b30:	00041b0b 	ldhu	zero,4204(zero)
    1b34:	f6d60500 	call	f6d6050 <nasys_stack_top+0xeed6050>
    1b38:	02000005 	stb	r8,0(zero)
    1b3c:	130b2423 	ldbuio	r12,11408(r2)
    1b40:	05000005 	stb	r20,0(zero)
    1b44:	00061bd8 	cmpnei	zero,zero,6255
    1b48:	28230200 	call	2823020 <nasys_stack_top+0x2023020>
    1b4c:	0006260b 	ldhu	zero,6296(zero)
    1b50:	36d90500 	call	36d9050 <nasys_stack_top+0x2ed9050>
    1b54:	02000006 	br	1b58 <_nasys_data_source_end+0x1330>
    1b58:	5f0e2c23 	ldbuio	fp,14512(r11)
    1b5c:	05006275 	stwio	r20,393(zero)
    1b60:	0002c9dc 	xori	zero,zero,2855
    1b64:	30230200 	call	3023020 <nasys_stack_top+0x2823020>
    1b68:	70755f0e 	bge	r14,at,fffff0e8 <nasys_stack_top+0xff7ff0e8>
    1b6c:	f2dd0500 	call	f2dd050 <nasys_stack_top+0xeadd050>
    1b70:	02000002 	0x2000002
    1b74:	5f0e3823 	ldbuio	fp,14560(r11)
    1b78:	05007275 	stwio	r20,457(zero)
    1b7c:	00002cde 	bne	zero,zero,1c33 <_nasys_data_source_end+0x140b>
    1b80:	3c230200 	call	3c23020 <nasys_stack_top+0x3423020>
    1b84:	00024e0b 	ldhu	zero,2360(zero)
    1b88:	3ce10500 	call	3ce1050 <nasys_stack_top+0x34e1050>
    1b8c:	02000006 	br	1b90 <_nasys_data_source_end+0x1368>
    1b90:	fe0b4023 	ldbuio	et,11520(ra)
    1b94:	05000005 	stb	r20,0(zero)
    1b98:	00064ce2 	0x64ce2
    1b9c:	43230200 	call	4323020 <nasys_stack_top+0x3b23020>
    1ba0:	626c5f0e 	bge	r12,r9,ffffcd20 <nasys_stack_top+0xff7fcd20>
    1ba4:	c9e50500 	call	c9e5050 <nasys_stack_top+0xc1e5050>
    1ba8:	02000002 	0x2000002
    1bac:	9d0b4423 	ldbuio	r20,11536(r19)
    1bb0:	05000002 	0x5000002
    1bb4:	00002ce8 	cmpgeui	zero,zero,179
    1bb8:	4c230200 	call	4c23020 <nasys_stack_top+0x4423020>
    1bbc:	0002ae0b 	ldhu	zero,2744(zero)
    1bc0:	2ce90500 	call	2ce9050 <nasys_stack_top+0x24e9050>
    1bc4:	02000000 	call	200000 <_gp+0x1f77f0>
    1bc8:	550b5023 	ldbuio	r20,11584(r10)
    1bcc:	05000006 	br	1bd0 <_nasys_data_source_end+0x13a8>
    1bd0:	000455ec 	andhi	zero,zero,4439
    1bd4:	54230200 	call	5423020 <nasys_stack_top+0x4c23020>
    1bd8:	00040f0b 	ldhu	zero,4156(zero)
    1bdc:	ecf00500 	call	ecf0050 <nasys_stack_top+0xe4f0050>
    1be0:	02000000 	call	200000 <_gp+0x1f77f0>
    1be4:	12005823 	ldbuio	r8,352(r2)
    1be8:	00002c01 	jmpi	2c0 <__call_exitprocs+0xf8>
    1bec:	00045500 	call	4550 <_nasys_data_source_end+0x3d28>
    1bf0:	04551300 	call	455130 <_gp+0x44c920>
    1bf4:	f7130000 	call	f713000 <nasys_stack_top+0xef13000>
    1bf8:	13000000 	call	1300000 <nasys_stack_top+0xb00000>
    1bfc:	000005b9 	0x5b9
    1c00:	00002c13 	initda	176(zero)
    1c04:	040f0000 	call	40f000 <_gp+0x4067f0>
    1c08:	0000045b 	flushda	17(zero)
    1c0c:	0004f614 	movui	zero,5080
    1c10:	05040000 	call	504000 <_gp+0x4fb7f0>
    1c14:	05b9029d 	stc	r22,-7158(zero)
    1c18:	21150000 	call	2115000 <nasys_stack_top+0x1915000>
    1c1c:	05000005 	stb	r20,0(zero)
    1c20:	002c029f 	ldl	zero,-20470(zero)
    1c24:	23020000 	call	2302000 <nasys_stack_top+0x1b02000>
    1c28:	02961500 	call	296150 <_gp+0x28d940>
    1c2c:	a4050000 	call	a405000 <nasys_stack_top+0x9c05000>
    1c30:	0006a902 	0x6a902
    1c34:	04230200 	call	423020 <_gp+0x41a810>
    1c38:	00032c15 	stw	zero,3248(zero)
    1c3c:	02a40500 	call	2a4050 <_gp+0x29b840>
    1c40:	000006a9 	0x6a9
    1c44:	15082302 	0x15082302
    1c48:	000002f1 	0x2f1
    1c4c:	a902a405 	stb	r4,2704(r21)
    1c50:	02000006 	br	1c54 <_nasys_data_source_end+0x142c>
    1c54:	ca150c23 	ldbuio	r8,21552(bt)
    1c58:	05000004 	movi	r20,0
    1c5c:	002c02a6 	beq	zero,zero,ffffcc6a <nasys_stack_top+0xff7fcc6a>
    1c60:	23020000 	call	2302000 <nasys_stack_top+0x1b02000>
    1c64:	01ee1510 	cmplti	r7,zero,-18348
    1c68:	a7050000 	call	a705000 <nasys_stack_top+0x9f05000>
    1c6c:	0008b302 	0x8b302
    1c70:	14230200 	call	1423020 <nasys_stack_top+0xc23020>
    1c74:	0005ad15 	stw	zero,5812(zero)
    1c78:	02a90500 	call	2a9050 <_gp+0x2a0840>
    1c7c:	0000002c 	andhi	zero,zero,0
    1c80:	15302302 	0x15302302
    1c84:	000004d4 	movui	zero,19
    1c88:	eb02aa05 	stb	r12,2728(ea)
    1c8c:	02000005 	stb	r8,0(zero)
    1c90:	44153423 	ldbuio	r16,21712(r8)
    1c94:	05000004 	movi	r20,0
    1c98:	002c02ac 	andhi	zero,zero,45066
    1c9c:	23020000 	call	2302000 <nasys_stack_top+0x1b02000>
    1ca0:	04e41538 	rdprs	r19,zero,-28588
    1ca4:	ae050000 	call	ae05000 <nasys_stack_top+0xa605000>
    1ca8:	0008cf02 	0x8cf02
    1cac:	3c230200 	call	3c23020 <nasys_stack_top+0x3423020>
    1cb0:	00036b15 	stw	zero,3500(zero)
    1cb4:	02b10500 	call	2b1050 <_gp+0x2a8840>
    1cb8:	0000016a 	0x16a
    1cbc:	15402302 	0x15402302
    1cc0:	00000316 	blt	zero,zero,1cd0 <_nasys_data_source_end+0x14a8>
    1cc4:	2c02b205 	stb	r16,2760(r5)
    1cc8:	02000000 	call	200000 <_gp+0x1f77f0>
    1ccc:	40154423 	ldbuio	zero,21776(r8)
    1cd0:	05000006 	br	1cd4 <_nasys_data_source_end+0x14ac>
    1cd4:	016a02b3 	initd	-22518(zero)
    1cd8:	23020000 	call	2302000 <nasys_stack_top+0x1b02000>
    1cdc:	04601548 	cmpgei	r17,zero,-32683
    1ce0:	b4050000 	call	b405000 <nasys_stack_top+0xac05000>
    1ce4:	0008d502 	0x8d502
    1ce8:	4c230200 	call	4c23020 <nasys_stack_top+0x4423020>
    1cec:	00033415 	stw	zero,3280(zero)
    1cf0:	02b70500 	call	2b7050 <_gp+0x2ae840>
    1cf4:	0000002c 	andhi	zero,zero,0
    1cf8:	15502302 	0x15502302
    1cfc:	000002a6 	beq	zero,zero,1d0a <_nasys_data_source_end+0x14e2>
    1d00:	b902b805 	stb	r4,2784(r23)
    1d04:	02000005 	stb	r8,0(zero)
    1d08:	7c155423 	ldbuio	r16,21840(r15)
    1d0c:	05000004 	movi	r20,0
    1d10:	089102da 	0x89102da
    1d14:	23020000 	call	2302000 <nasys_stack_top+0x1b02000>
    1d18:	043c1558 	cmpnei	r16,zero,-4011
    1d1c:	dd050000 	call	dd05000 <nasys_stack_top+0xd505000>
    1d20:	0002ab02 	0x2ab02
    1d24:	c8230300 	call	c823030 <nasys_stack_top+0xc023030>
    1d28:	03491502 	0x3491502
    1d2c:	de050000 	call	de05000 <nasys_stack_top+0xd605000>
    1d30:	00026402 	0x26402
    1d34:	cc230300 	call	cc23030 <nasys_stack_top+0xc423030>
    1d38:	05f41502 	0x5f41502
    1d3c:	e1050000 	call	e105000 <nasys_stack_top+0xd905000>
    1d40:	0008e702 	0x8e702
    1d44:	dc230300 	call	dc23030 <nasys_stack_top+0xd423030>
    1d48:	027f1505 	stb	r9,-940(zero)
    1d4c:	e6050000 	call	e605000 <nasys_stack_top+0xde05000>
    1d50:	00066802 	0x66802
    1d54:	e0230300 	call	e023030 <nasys_stack_top+0xd823030>
    1d58:	02641505 	stb	r9,-28588(zero)
    1d5c:	e7050000 	call	e705000 <nasys_stack_top+0xdf05000>
    1d60:	0008f302 	0x8f302
    1d64:	ec230300 	call	ec23030 <nasys_stack_top+0xe423030>
    1d68:	040f0005 	stb	r16,15360(zero)
    1d6c:	000005bf 	0x5bf
    1d70:	7e060102 	0x7e060102
    1d74:	0f000001 	jmpi	f00000 <nasys_stack_top+0x700000>
    1d78:	00043604 	movi	zero,4312
    1d7c:	2c011200 	call	2c01120 <nasys_stack_top+0x2401120>
    1d80:	eb000000 	call	eb00000 <nasys_stack_top+0xe300000>
    1d84:	13000005 	stb	r12,0(r2)
    1d88:	00000455 	stw	zero,17(zero)
    1d8c:	0000f713 	initda	988(zero)
    1d90:	05eb1300 	call	5eb130 <_gp+0x5e2920>
    1d94:	2c130000 	call	2c13000 <nasys_stack_top+0x2413000>
    1d98:	00000000 	call	0 <nasys_data_mem>
    1d9c:	05f1040f 	ldh	r23,-15344(zero)
    1da0:	bf160000 	call	bf16000 <nasys_stack_top+0xb716000>
    1da4:	0f000005 	stb	fp,0(at)
    1da8:	0005cc04 	movi	zero,5936
    1dac:	6f011200 	call	6f01120 <nasys_stack_top+0x6701120>
    1db0:	1b000000 	call	1b00000 <nasys_stack_top+0x1300000>
    1db4:	13000006 	br	1db8 <_nasys_data_source_end+0x1590>
    1db8:	00000455 	stw	zero,17(zero)
    1dbc:	0000f713 	initda	988(zero)
    1dc0:	006f1300 	call	6f130 <_gp+0x66920>
    1dc4:	2c130000 	call	2c13000 <nasys_stack_top+0x2413000>
    1dc8:	00000000 	call	0 <nasys_data_mem>
    1dcc:	05fc040f 	ldh	r23,-4080(zero)
    1dd0:	01120000 	call	112000 <_gp+0x1097f0>
    1dd4:	0000002c 	andhi	zero,zero,0
    1dd8:	00000636 	bltu	zero,zero,1df4 <_nasys_data_source_end+0x15cc>
    1ddc:	00045513 	initda	4436(zero)
    1de0:	00f71300 	call	f7130 <_gp+0xee920>
    1de4:	0f000000 	call	f00000 <nasys_stack_top+0x700000>
    1de8:	00062104 	movi	zero,6276
    1dec:	003a0800 	call	3a080 <_gp+0x31870>
    1df0:	064c0000 	call	64c000 <_gp+0x6437f0>
    1df4:	b5090000 	call	b509000 <nasys_stack_top+0xad09000>
    1df8:	02000000 	call	200000 <_gp+0x1f77f0>
    1dfc:	003a0800 	call	3a080 <_gp+0x31870>
    1e00:	065c0000 	call	65c000 <_gp+0x6537f0>
    1e04:	b5090000 	call	b509000 <nasys_stack_top+0xad09000>
    1e08:	00000000 	call	0 <nasys_data_mem>
    1e0c:	04980500 	call	498050 <_gp+0x48f840>
    1e10:	30050000 	call	3005000 <nasys_stack_top+0x2805000>
    1e14:	0002f801 	jmpi	2f80 <_nasys_data_source_end+0x2758>
    1e18:	05db1700 	call	5db170 <_gp+0x5d2960>
    1e1c:	050c0000 	call	50c000 <_gp+0x5037f0>
    1e20:	06a30135 	stwio	gp,-29692(zero)
    1e24:	b7150000 	call	b715000 <nasys_stack_top+0xaf15000>
    1e28:	05000004 	movi	r20,0
    1e2c:	06a30137 	ldwio	gp,-29692(zero)
    1e30:	23020000 	call	2302000 <nasys_stack_top+0x1b02000>
    1e34:	03421500 	call	342150 <_gp+0x339940>
    1e38:	38050000 	call	3805000 <nasys_stack_top+0x3005000>
    1e3c:	00002c01 	jmpi	2c0 <__call_exitprocs+0xf8>
    1e40:	04230200 	call	423020 <_gp+0x41a810>
    1e44:	00049215 	stw	zero,4680(zero)
    1e48:	01390500 	call	139050 <_gp+0x130840>
    1e4c:	000006a9 	0x6a9
    1e50:	00082302 	0x82302
    1e54:	0668040f 	ldh	bt,-24560(zero)
    1e58:	040f0000 	call	40f000 <_gp+0x4067f0>
    1e5c:	0000065c 	xori	zero,zero,25
    1e60:	0001e617 	ldw	zero,1944(zero)
    1e64:	51050e00 	call	51050e0 <nasys_stack_top+0x49050e0>
    1e68:	0006ea01 	jmpi	6ea0 <_nasys_data_source_end+0x6678>
    1e6c:	04fd1500 	call	4fd150 <_gp+0x4f4940>
    1e70:	52050000 	call	5205000 <nasys_stack_top+0x4a05000>
    1e74:	0006ea01 	jmpi	6ea0 <_nasys_data_source_end+0x6678>
    1e78:	00230200 	call	23020 <_gp+0x1a810>
    1e7c:	00041515 	stw	zero,4180(zero)
    1e80:	01530500 	call	153050 <_gp+0x14a840>
    1e84:	000006ea 	0x6ea
    1e88:	15062302 	0x15062302
    1e8c:	00000580 	call	58 <sumthree+0x28>
    1e90:	48015405 	stb	zero,1360(r9)
    1e94:	02000000 	call	200000 <_gp+0x1f77f0>
    1e98:	08000c23 	ldbuio	zero,48(at)
    1e9c:	00000048 	cmpgei	zero,zero,1
    1ea0:	000006fa 	0x6fa
    1ea4:	0000b509 	0xb509
    1ea8:	18000200 	call	1800020 <nasys_stack_top+0x1000020>
    1eac:	02bc05c8 	cmpgei	r10,zero,-4073
    1eb0:	00000819 	0x819
    1eb4:	0005bf15 	stw	zero,5884(zero)
    1eb8:	02be0500 	call	2be050 <_gp+0x2b5840>
    1ebc:	00000025 	stbio	zero,0(zero)
    1ec0:	15002302 	0x15002302
    1ec4:	0000056a 	0x56a
    1ec8:	b902bf05 	stb	r4,2812(r23)
    1ecc:	02000005 	stb	r8,0(zero)
    1ed0:	5e150423 	ldbuio	et,21520(r11)
    1ed4:	05000003 	ldbu	r20,0(zero)
    1ed8:	081902c0 	call	81902c <nasys_stack_top+0x1902c>
    1edc:	23020000 	call	2302000 <nasys_stack_top+0x1b02000>
    1ee0:	06171508 	cmpgei	et,zero,23636
    1ee4:	c1050000 	call	c105000 <nasys_stack_top+0xb905000>
    1ee8:	00018002 	0x18002
    1eec:	24230200 	call	2423020 <nasys_stack_top+0x1c23020>
    1ef0:	00030115 	stw	zero,3076(zero)
    1ef4:	02c20500 	call	2c2050 <_gp+0x2b9840>
    1ef8:	0000002c 	andhi	zero,zero,0
    1efc:	15482302 	0x15482302
    1f00:	000004b2 	custom	18,c0,c0,c0
    1f04:	5602c305 	stb	et,2828(r10)
    1f08:	02000000 	call	200000 <_gp+0x1f77f0>
    1f0c:	2d154c23 	ldbuio	r20,21808(r5)
    1f10:	05000006 	br	1f14 <_nasys_data_source_end+0x16ec>
    1f14:	06af02c4 	movi	gp,-17397
    1f18:	23020000 	call	2302000 <nasys_stack_top+0x1b02000>
    1f1c:	04bd1554 	movui	r18,62549
    1f20:	c5050000 	call	c505000 <nasys_stack_top+0xbd05000>
    1f24:	0000e102 	0xe102
    1f28:	64230200 	call	6423020 <nasys_stack_top+0x5c23020>
    1f2c:	00063215 	stw	zero,6344(zero)
    1f30:	02c60500 	call	2c6050 <_gp+0x2bd840>
    1f34:	000000e1 	0xe1
    1f38:	156c2302 	0x156c2302
    1f3c:	00000231 	0x231
    1f40:	e102c705 	stb	r4,2844(fp)
    1f44:	02000000 	call	200000 <_gp+0x1f77f0>
    1f48:	ea157423 	ldbuio	r8,21968(ea)
    1f4c:	05000005 	stb	r20,0(zero)
    1f50:	082902c8 	cmpgei	zero,at,-23541
    1f54:	23020000 	call	2302000 <nasys_stack_top+0x1b02000>
    1f58:	0352157c 	xorhi	r13,zero,18517
    1f5c:	c9050000 	call	c905000 <nasys_stack_top+0xc105000>
    1f60:	00083902 	0x83902
    1f64:	84230300 	call	8423030 <nasys_stack_top+0x7c23030>
    1f68:	058d1501 	jmpi	58d150 <_gp+0x584940>
    1f6c:	ca050000 	call	ca05000 <nasys_stack_top+0xc205000>
    1f70:	00002c02 	0x2c02
    1f74:	9c230300 	call	9c23030 <nasys_stack_top+0x9423030>
    1f78:	02c71501 	jmpi	2c7150 <_gp+0x2be940>
    1f7c:	cb050000 	call	cb05000 <nasys_stack_top+0xc305000>
    1f80:	0000e102 	0xe102
    1f84:	a0230300 	call	a023030 <nasys_stack_top+0x9823030>
    1f88:	02221501 	jmpi	222150 <_gp+0x219940>
    1f8c:	cc050000 	call	cc05000 <nasys_stack_top+0xc405000>
    1f90:	0000e102 	0xe102
    1f94:	a8230300 	call	a823030 <nasys_stack_top+0xa023030>
    1f98:	02b61501 	jmpi	2b6150 <_gp+0x2ad940>
    1f9c:	cd050000 	call	cd05000 <nasys_stack_top+0xc505000>
    1fa0:	0000e102 	0xe102
    1fa4:	b0230300 	call	b023030 <nasys_stack_top+0xa823030>
    1fa8:	01f91501 	jmpi	1f9150 <_gp+0x1f0940>
    1fac:	ce050000 	call	ce05000 <nasys_stack_top+0xc605000>
    1fb0:	0000e102 	0xe102
    1fb4:	b8230300 	call	b823030 <nasys_stack_top+0xb023030>
    1fb8:	02081501 	jmpi	208150 <_gp+0x1ff940>
    1fbc:	cf050000 	call	cf05000 <nasys_stack_top+0xc705000>
    1fc0:	0000e102 	0xe102
    1fc4:	c0230300 	call	c023030 <nasys_stack_top+0xb823030>
    1fc8:	bf080001 	jmpi	bf08000 <nasys_stack_top+0xb708000>
    1fcc:	29000005 	stb	r4,0(r5)
    1fd0:	09000008 	cmpgei	r4,at,0
    1fd4:	000000b5 	stwio	zero,2(zero)
    1fd8:	bf080019 	0xbf080019
    1fdc:	39000005 	stb	r4,0(r7)
    1fe0:	09000008 	cmpgei	r4,at,0
    1fe4:	000000b5 	stwio	zero,2(zero)
    1fe8:	bf080007 	ldb	fp,8192(r23)
    1fec:	49000005 	stb	r4,0(r9)
    1ff0:	09000008 	cmpgei	r4,at,0
    1ff4:	000000b5 	stwio	zero,2(zero)
    1ff8:	f0180017 	ldw	zero,24576(ba)
    1ffc:	7102d405 	stb	r4,2896(r14)
    2000:	15000008 	cmpgei	r20,r2,0
    2004:	0000042c 	andhi	zero,zero,16
    2008:	7102d705 	stb	r4,2908(r14)
    200c:	02000008 	cmpgei	r8,zero,0
    2010:	e1150023 	ldbuio	r4,21504(fp)
    2014:	05000005 	stb	r20,0(zero)
    2018:	088102d8 	cmpnei	r2,at,1035
    201c:	23020000 	call	2302000 <nasys_stack_top+0x1b02000>
    2020:	f2080078 	rdprs	r8,ba,8193
    2024:	81000002 	0x81000002
    2028:	09000008 	cmpgei	r4,at,0
    202c:	000000b5 	stwio	zero,2(zero)
    2030:	2508001d 	stc	r20,8192(r4)
    2034:	91000000 	call	9100000 <nasys_stack_top+0x8900000>
    2038:	09000008 	cmpgei	r4,at,0
    203c:	000000b5 	stwio	zero,2(zero)
    2040:	f019001d 	stc	zero,25600(ba)
    2044:	b302ba05 	stb	r12,2792(r22)
    2048:	1a000008 	cmpgei	r8,r3,0
    204c:	000004f6 	bltu	zero,zero,2063 <_nasys_data_source_end+0x183b>
    2050:	fa02d005 	stb	r8,2880(ra)
    2054:	1a000006 	br	2058 <_nasys_data_source_end+0x1830>
    2058:	00000604 	movi	zero,24
    205c:	4902d905 	stb	r4,2916(r9)
    2060:	00000008 	cmpgei	zero,zero,0
    2064:	0005bf08 	cmpgei	zero,zero,5884
    2068:	0008c300 	call	8c30 <_gp+0x420>
    206c:	00b50900 	call	b5090 <_gp+0xac880>
    2070:	00180000 	call	18000 <_gp+0xf7f0>
    2074:	08cf011b 	flushda	15364(at)
    2078:	55130000 	call	5513000 <nasys_stack_top+0x4d13000>
    207c:	00000004 	movi	zero,0
    2080:	08c3040f 	ldh	r3,3088(at)
    2084:	040f0000 	call	40f000 <_gp+0x4067f0>
    2088:	0000016a 	0x16a
    208c:	08e7011b 	flushda	-25596(at)
    2090:	2c130000 	call	2c13000 <nasys_stack_top+0x2413000>
    2094:	00000000 	call	0 <nasys_data_mem>
    2098:	08ed040f 	ldh	r3,-19440(at)
    209c:	040f0000 	call	40f000 <_gp+0x4067f0>
    20a0:	000008db 	flushda	35(zero)
    20a4:	00065c08 	cmpgei	zero,zero,6512
    20a8:	00090300 	call	9030 <_gp+0x820>
    20ac:	00b50900 	call	b5090 <_gp+0xac880>
    20b0:	00020000 	call	2000 <_nasys_data_source_end+0x17d8>
    20b4:	044f011c 	xori	r17,zero,15364
    20b8:	39010000 	call	3901000 <nasys_stack_top+0x3101000>
    20bc:	0001c801 	jmpi	1c80 <_nasys_data_source_end+0x1458>
    20c0:	00036800 	call	3680 <_nasys_data_source_end+0x2e58>
    20c4:	0002d000 	call	2d00 <_nasys_data_source_end+0x24d8>
    20c8:	09ca0100 	call	9ca010 <nasys_stack_top+0x1ca010>
    20cc:	9f1d0000 	call	9f1d000 <nasys_stack_top+0x971d000>
    20d0:	01000008 	cmpgei	r4,zero,0
    20d4:	00002c39 	0x2c39
    20d8:	0002f000 	call	2f00 <_nasys_data_source_end+0x26d8>
    20dc:	00641e00 	call	641e0 <_gp+0x5b9d0>
    20e0:	00f73901 	jmpi	f7390 <_gp+0xeeb80>
    20e4:	030f0000 	call	30f000 <_gp+0x3067f0>
    20e8:	701f0000 	call	701f000 <nasys_stack_top+0x681f000>
    20ec:	ab3c0100 	call	ab3c010 <nasys_stack_top+0xa33c010>
    20f0:	46000002 	0x46000002
    20f4:	20000003 	ldbu	zero,0(r4)
    20f8:	00000843 	ldbu	zero,33(zero)
    20fc:	09ca3d01 	jmpi	9ca3d0 <nasys_stack_top+0x1ca3d0>
    2100:	037a0000 	call	37a000 <_gp+0x3717f0>
    2104:	72200000 	call	7220000 <nasys_stack_top+0x6a20000>
    2108:	01000002 	0x1000002
    210c:	0009d03e 	0x9d03e
    2110:	0003a500 	call	3a50 <_nasys_data_source_end+0x3228>
    2114:	006e1f00 	call	6e1f0 <_gp+0x659e0>
    2118:	002c3f01 	jmpi	2c3f0 <_gp+0x23be0>
    211c:	04170000 	call	417000 <_gp+0x40e7f0>
    2120:	691f0000 	call	691f000 <nasys_stack_top+0x611f000>
    2124:	2c400100 	call	2c40010 <nasys_stack_top+0x2440010>
    2128:	35000000 	call	3500000 <nasys_stack_top+0x2d00000>
    212c:	1f000004 	addi	fp,r3,0
    2130:	01006e66 	beq	zero,r4,22ed <_nasys_data_source_end+0x1ac5>
    2134:	0002c341 	jmpi	2c34 <_nasys_data_source_end+0x240c>
    2138:	00046a00 	call	46a0 <_nasys_data_source_end+0x3e78>
    213c:	08552100 	call	855210 <nasys_stack_top+0x55210>
    2140:	43010000 	call	4301000 <nasys_stack_top+0x3b01000>
    2144:	00001822 	0x1822
    2148:	0009b900 	call	9b90 <_gp+0x1380>
    214c:	6e691f00 	call	6e691f0 <nasys_stack_top+0x66691f0>
    2150:	50010064 	muli	zero,r10,1025
    2154:	0000002c 	andhi	zero,zero,0
    2158:	00000493 	initda	18(zero)
    215c:	0002fc23 	ldbuio	zero,3056(zero)
    2160:	54012400 	call	5401240 <nasys_stack_top+0x4c01240>
    2164:	06509103 	ldbu	bt,16964(zero)
    2168:	48250000 	call	4825000 <nasys_stack_top+0x4025000>
    216c:	f6000003 	ldbu	et,0(ba)
    2170:	24000009 	0x24000009
    2174:	82025401 	jmpi	8202540 <nasys_stack_top+0x7a02540>
    2178:	0f000000 	call	f00000 <nasys_stack_top+0x700000>
    217c:	0002ab04 	movi	zero,2732
    2180:	0b040f00 	call	b040f0 <nasys_stack_top+0x3040f0>
    2184:	26000002 	0x26000002
    2188:	0000059a 	0x59a
    218c:	e4038605 	stb	r16,3608(fp)
    2190:	01000009 	0x1000009
    2194:	04551601 	jmpi	455160 <_gp+0x44c950>
    2198:	49270000 	call	4927000 <nasys_stack_top+0x4127000>
    219c:	01000008 	cmpgei	r4,zero,0
    21a0:	0005bf20 	cmpeqi	zero,zero,5884
    21a4:	28010100 	call	2801010 <nasys_stack_top+0x2001010>
    21a8:	00085d01 	jmpi	85d0 <_nasys_data_source_end+0x7da8>
    21ac:	01500600 	call	150060 <_gp+0x147850>
    21b0:	00f71301 	jmpi	f7130 <_gp+0xee920>
    21b4:	00000000 	call	0 <nasys_data_mem>
    21b8:	0000006c 	andhi	zero,zero,1
    21bc:	07ff0002 	0x7ff0002
    21c0:	01040000 	call	104000 <_gp+0xfb7f0>
    21c4:	00000007 	ldb	zero,0(zero)
    21c8:	00086201 	jmpi	8620 <_nasys_data_source_end+0x7df8>
    21cc:	00006800 	call	680 <_nasys_data_destination+0x260>
    21d0:	00036800 	call	3680 <_nasys_data_source_end+0x2e58>
    21d4:	00039800 	call	3980 <_nasys_data_source_end+0x3158>
    21d8:	000a9c00 	call	a9c0 <_gp+0x21b0>
    21dc:	a4010200 	call	a401020 <nasys_stack_top+0x9c01020>
    21e0:	01000008 	cmpgei	r4,zero,0
    21e4:	0003681f 	ldl	zero,3488(zero)
    21e8:	00036c00 	call	36c0 <_nasys_data_source_end+0x2e98>
    21ec:	008b0200 	call	8b020 <_gp+0x82810>
    21f0:	48010301 	jmpi	4801030 <nasys_stack_top+0x4001030>
    21f4:	01000002 	0x1000002
    21f8:	036c0123 	ldbuio	r13,-20476(zero)
    21fc:	03980000 	call	398000 <_gp+0x38f7f0>
    2200:	04b10000 	call	4b1000 <_gp+0x4a87f0>
    2204:	68010000 	call	6801000 <nasys_stack_top+0x6001000>
    2208:	04000000 	call	400000 <_gp+0x3f77f0>
    220c:	0000089a 	0x89a
    2210:	00682301 	jmpi	68230 <_gp+0x5fa20>
    2214:	04d10000 	call	4d1000 <_gp+0x4c87f0>
    2218:	80050000 	call	8005000 <nasys_stack_top+0x7805000>
    221c:	00000003 	ldbu	zero,0(zero)
    2220:	69050406 	br	3634 <_nasys_data_source_end+0x2e0c>
    2224:	0000746e 	bgeu	zero,zero,23f9 <_nasys_data_source_end+0x1bd1>

Disassembly of section .debug_abbrev:

00000000 <.debug_abbrev>:
   0:	10001101 	jmpi	1000110 <nasys_stack_top+0x800110>
   4:	12011106 	br	44c <_nasys_data_destination+0x2c>
   8:	1b080301 	jmpi	1b08030 <nasys_stack_top+0x1308030>
   c:	13082508 	cmpgei	r12,r2,8340
  10:	00000005 	stb	zero,0(zero)
  14:	25011101 	jmpi	2501110 <nasys_stack_top+0x1d01110>
  18:	030b130e 	bge	zero,r12,2c68 <_nasys_data_source_end+0x2440>
  1c:	1106550e 	bge	r2,r4,1974 <_nasys_data_source_end+0x114c>
  20:	10015201 	jmpi	1001520 <nasys_stack_top+0x801520>
  24:	02000006 	br	28 <nasys_data_mem+0x28>
  28:	0c3f012e 	bgeu	at,r16,fffffc30 <nasys_stack_top+0xff7ffc30>
  2c:	0b3a0e03 	ldbu	r12,-6088(at)
.text
.global sumthree
sumthree:

addi sp, sp, -24;
  30:	13490b3b 	flushd	9260(r2)

stw ra, 20(sp);
  34:	01120111 	0x1120111
stw fp, 16(sp);
  38:	42960640 	call	4296064 <nasys_stack_top+0x3a96064>
addi fp, fp, -24;
  3c:	0013010c 	andi	zero,zero,19460
stw r4, 12(sp);
  40:	00340300 	call	34030 <_gp+0x2b820>
stw r5, 8(sp);
  44:	0b3a0803 	ldbu	r12,-6112(at)
stw r6, 4(sp);
  48:	13490b3b 	flushd	9260(r2)


call sumtwo
  4c:	00000a02 	0xa02

stw r2, 0(sp);
  50:	0b002404 	addi	r12,at,144
stw r4, 0(sp);
  54:	030b3e0b 	ldhu	r12,11512(zero)
stw r5, 4(sp);
  58:	05000008 	cmpgei	r20,zero,0

call sumtwo
  5c:	0c3f012e 	bgeu	at,r16,fffffc64 <nasys_stack_top+0xff7ffc64>

stw r2, 0(sp);
  60:	0b3a0e03 	ldbu	r12,-6088(at)

ldw ra, 20(sp);
  64:	0c270b3b 	flushd	-25556(at)

ret
  68:	01111349 	0x1111349
  6c:	06400112 	0x6400112
  70:	000c4297 	ldw	zero,12554(zero)
  74:	00050600 	call	5060 <_nasys_data_source_end+0x4838>
  78:	0b3a0803 	ldbu	r12,-6112(at)
  7c:	13490b3b 	flushd	9260(r2)
  80:	00000a02 	0xa02
  84:	01110100 	call	111010 <_gp+0x108800>
  88:	0b130e25 	stbio	r12,19512(at)
  8c:	0e1b0e03 	ldbu	et,27704(at)
  90:	01120111 	0x1120111
  94:	00000610 	cmplti	zero,zero,24
  98:	3f002e02 	0x3f002e02
  9c:	3a0e030c 	andi	r8,r7,14348
  a0:	110b3b0b 	ldhu	r4,11500(r2)
  a4:	40011201 	jmpi	4001120 <nasys_stack_top+0x3801120>
  a8:	0c42970a 	0xc42970a
  ac:	2e030000 	call	2e03000 <nasys_stack_top+0x2603000>
  b0:	030c3f01 	jmpi	30c3f0 <_gp+0x303be0>
  b4:	3b0b3a0e 	bge	r7,r12,2da0 <_nasys_data_source_end+0x2578>
  b8:	110c270b 	ldhu	r4,12444(r2)
  bc:	40011201 	jmpi	4001120 <nasys_stack_top+0x3801120>
  c0:	0c429706 	br	b20 <_nasys_data_source_end+0x2f8>
  c4:	00001301 	jmpi	130 <memset+0x44>
  c8:	3f012e04 	addi	fp,r7,1208
  cc:	3a0e030c 	andi	r8,r7,14348
  d0:	490b3b0b 	ldhu	r4,11500(r9)
  d4:	010c3c13 	initda	12528(zero)
  d8:	05000013 	initda	0(zero)
  dc:	00000018 	cmpnei	zero,zero,0
  e0:	3f012e06 	br	59c <_nasys_data_destination+0x17c>
  e4:	3a0e030c 	andi	r8,r7,14348
  e8:	270b3b0b 	ldhu	fp,11500(r4)
  ec:	010c3c0c 	andi	r4,zero,12528
  f0:	07000013 	initda	0(zero)
  f4:	13490005 	stb	r13,9216(r2)
  f8:	89080000 	call	8908000 <nasys_stack_top+0x8108000>
  fc:	11010182 	0x11010182
 100:	01133101 	jmpi	113310 <_gp+0x10ab00>
 104:	09000013 	initda	0(at)
 108:	0001828a 	0x1828a
 10c:	42910a02 	0x42910a02
 110:	0a00000a 	0xa00000a
 114:	00018289 	0x18289
 118:	00000111 	0x111
 11c:	0182890b 	ldhu	r6,2596(zero)
 120:	31011100 	call	3101110 <nasys_stack_top+0x2901110>
 124:	0c000013 	initda	0(at)
 128:	0b0b0024 	muli	r12,at,11264
 12c:	08030b3e 	0x8030b3e
 130:	340d0000 	call	340d000 <nasys_stack_top+0x2c0d000>
 134:	3a0e0300 	call	3a0e030 <nasys_stack_top+0x320e030>
 138:	3f0b3b0b 	ldhu	fp,11500(r7)
 13c:	000c3c0c 	andi	zero,zero,12528
 140:	012e0e00 	call	12e0e0 <_gp+0x1258d0>
 144:	0e030c3f 	0xe030c3f
 148:	0b3b0b3a 	0xb3b0b3a
 14c:	13490c27 	ldbio	r13,9264(r2)
 150:	13010c3c 	xorhi	r12,r2,1072
 154:	0f0f0000 	call	f0f000 <nasys_stack_top+0x70f000>
 158:	490b0b00 	call	490b0b0 <nasys_stack_top+0x410b0b0>
 15c:	10000013 	initda	0(r2)
 160:	0b0b0024 	muli	r12,at,11264
 164:	0e030b3e 	0xe030b3e
 168:	2e110000 	call	2e11000 <nasys_stack_top+0x2611000>
 16c:	030c3f01 	jmpi	30c3f0 <_gp+0x303be0>
 170:	3b0b3a0e 	bge	r7,r12,2e5c <_nasys_data_source_end+0x2634>
 174:	3c0c270b 	ldhu	r16,12444(r7)
 178:	0000000c 	andi	zero,zero,0
 17c:	25011101 	jmpi	2501110 <nasys_stack_top+0x1d01110>
 180:	030b130e 	bge	zero,r12,2dd0 <_nasys_data_source_end+0x25a8>
 184:	110e1b0e 	bge	r2,r4,39f4 <_nasys_data_source_end+0x31cc>
 188:	10011201 	jmpi	1001120 <nasys_stack_top+0x801120>
 18c:	02000006 	br	190 <memset+0xa4>
 190:	0b0b0024 	muli	r12,at,11264
 194:	0e030b3e 	0xe030b3e
 198:	24030000 	call	2403000 <nasys_stack_top+0x1c03000>
 19c:	3e0b0b00 	call	3e0b0b0 <nasys_stack_top+0x360b0b0>
 1a0:	0008030b 	ldhu	zero,8204(zero)
 1a4:	000f0400 	call	f040 <_gp+0x6830>
 1a8:	00000b0b 	ldhu	zero,44(zero)
 1ac:	03001605 	stb	r12,88(zero)
 1b0:	3b0b3a0e 	bge	r7,r12,2e9c <_nasys_data_source_end+0x2674>
 1b4:	0013490b 	ldhu	zero,19748(zero)
 1b8:	012e0600 	call	12e060 <_gp+0x125850>
 1bc:	0e030c3f 	0xe030c3f
 1c0:	0b3b0b3a 	0xb3b0b3a
 1c4:	01110c27 	ldbio	r4,17456(zero)
 1c8:	0a400112 	0xa400112
 1cc:	010c4297 	ldw	r4,12554(zero)
 1d0:	07000013 	initda	0(zero)
 1d4:	0e030005 	stb	et,3072(at)
 1d8:	0b3b0b3a 	0xb3b0b3a
 1dc:	06021349 	0x6021349
 1e0:	05080000 	call	508000 <_gp+0x4ff7f0>
 1e4:	3a080300 	call	3a08030 <nasys_stack_top+0x3208030>
 1e8:	490b3b0b 	ldhu	r4,11500(r9)
 1ec:	00060213 	initda	6152(zero)
 1f0:	82890900 	call	8289090 <nasys_stack_top+0x7a89090>
 1f4:	01110101 	jmpi	111010 <_gp+0x108800>
 1f8:	310c4295 	stw	r4,12554(r6)
 1fc:	0a000013 	initda	0(at)
 200:	0001828a 	0x1828a
 204:	42910a02 	0x42910a02
 208:	0b00000a 	0xb00000a
 20c:	0c3f012e 	bgeu	at,r16,fffffe14 <nasys_stack_top+0xff7ffe14>
 210:	0b3a0e03 	ldbu	r12,-6088(at)
 214:	0c270b3b 	flushd	-25556(at)
 218:	0c3c1349 	0xc3c1349
 21c:	050c0000 	call	50c000 <_gp+0x5037f0>
 220:	00134900 	call	13490 <_gp+0xac80>
 224:	11010000 	call	1101000 <nasys_stack_top+0x901000>
 228:	130e2501 	jmpi	130e250 <nasys_stack_top+0xb0e250>
 22c:	1b0e030b 	ldhu	r12,14348(r3)
 230:	1201110e 	bge	r2,r8,678 <_nasys_data_destination+0x258>
 234:	00061001 	jmpi	6100 <_nasys_data_source_end+0x58d8>
 238:	00240200 	call	24020 <_gp+0x1b810>
 23c:	0b3e0b0b 	ldhu	r12,-2004(at)
 240:	00000e03 	ldbu	zero,56(zero)
 244:	0b002403 	ldbu	r12,144(at)
 248:	030b3e0b 	ldhu	r12,11512(zero)
 24c:	04000008 	cmpgei	r16,zero,0
 250:	0e030016 	blt	at,et,e54 <_nasys_data_source_end+0x62c>
 254:	0b3b0b3a 	0xb3b0b3a
 258:	00001349 	0x1349
 25c:	03001605 	stb	r12,88(zero)
 260:	3b0b3a0e 	bge	r7,r12,2f4c <_nasys_data_source_end+0x2724>
 264:	00134905 	stb	zero,19748(zero)
 268:	01170600 	call	117060 <_gp+0x10e850>
 26c:	0b3a0b0b 	ldhu	r12,-6100(at)
 270:	13010b3b 	flushd	1068(r2)
 274:	0d070000 	call	d07000 <nasys_stack_top+0x507000>
 278:	3a0e0300 	call	3a0e030 <nasys_stack_top+0x320e030>
 27c:	490b3b0b 	ldhu	r4,11500(r9)
 280:	08000013 	initda	0(at)
 284:	13490101 	jmpi	1349010 <nasys_stack_top+0xb49010>
 288:	00001301 	jmpi	130 <memset+0x44>
 28c:	49002109 	0x49002109
 290:	000b2f13 	initda	11452(zero)
 294:	01130a00 	call	1130a0 <_gp+0x10a890>
 298:	0b3a0b0b 	ldhu	r12,-6100(at)
 29c:	13010b3b 	flushd	1068(r2)
 2a0:	0d0b0000 	call	d0b000 <nasys_stack_top+0x50b000>
 2a4:	3a0e0300 	call	3a0e030 <nasys_stack_top+0x320e030>
 2a8:	490b3b0b 	ldhu	r4,11500(r9)
 2ac:	000a3813 	initda	10464(zero)
 2b0:	000f0c00 	call	f0c0 <_gp+0x68b0>
 2b4:	00000b0b 	ldhu	zero,44(zero)
 2b8:	0301130d 	sth	r12,1100(zero)
 2bc:	3a0b0b0e 	bge	r7,r8,2eec <_nasys_data_source_end+0x26c4>
 2c0:	010b3b0b 	ldhu	r4,11500(zero)
 2c4:	0e000013 	initda	0(at)
 2c8:	0803000d 	sth	zero,3072(at)
 2cc:	0b3b0b3a 	0xb3b0b3a
 2d0:	0a381349 	0xa381349
 2d4:	0f0f0000 	call	f0f000 <nasys_stack_top+0x70f000>
 2d8:	490b0b00 	call	490b0b0 <nasys_stack_top+0x410b0b0>
 2dc:	10000013 	initda	0(r2)
 2e0:	0e030113 	initda	3076(at)
 2e4:	0b3a050b 	ldhu	r12,-6124(at)
 2e8:	13010b3b 	flushd	1068(r2)
 2ec:	15110000 	call	1511000 <nasys_stack_top+0xd11000>
 2f0:	000c2700 	call	c270 <_gp+0x3a60>
 2f4:	01151200 	call	115120 <_gp+0x10c910>
 2f8:	13490c27 	ldbio	r13,9264(r2)
 2fc:	00001301 	jmpi	130 <memset+0x44>
 300:	49000513 	initda	20(r9)
 304:	14000013 	initda	0(r2)
 308:	0e030113 	initda	3076(at)
 30c:	0b3a050b 	ldhu	r12,-6124(at)
 310:	1301053b 	flushd	1044(r2)
 314:	0d150000 	call	d15000 <nasys_stack_top+0x515000>
 318:	3a0e0300 	call	3a0e030 <nasys_stack_top+0x320e030>
 31c:	49053b0b 	ldhu	r4,5356(r9)
 320:	000a3813 	initda	10464(zero)
 324:	00261600 	call	26160 <_gp+0x1d950>
 328:	00001349 	0x1349
 32c:	03011317 	ldw	r12,1100(zero)
 330:	3a0b0b0e 	bge	r7,r8,2f60 <_nasys_data_source_end+0x2738>
 334:	01053b0b 	ldhu	r4,5356(zero)
 338:	18000013 	initda	0(r3)
 33c:	0b0b0113 	initda	11268(at)
 340:	053b0b3a 	0x53b0b3a
 344:	00001301 	jmpi	130 <memset+0x44>
 348:	0b011719 	0xb011719
 34c:	3b0b3a0b 	ldhu	r12,11496(r7)
 350:	00130105 	stb	zero,19460(zero)
 354:	000d1a00 	call	d1a0 <_gp+0x4990>
 358:	0b3a0e03 	ldbu	r12,-6088(at)
 35c:	1349053b 	flushd	9236(r2)
 360:	151b0000 	call	151b000 <nasys_stack_top+0xd1b000>
 364:	010c2701 	jmpi	10c270 <_gp+0x103a60>
 368:	1c000013 	initda	0(r3)
 36c:	0c3f012e 	bgeu	at,r16,ffffff74 <nasys_stack_top+0xff7fff74>
 370:	0b3a0e03 	ldbu	r12,-6088(at)
 374:	0c270b3b 	flushd	-25556(at)
 378:	01120111 	0x1120111
 37c:	42960640 	call	4296064 <nasys_stack_top+0x3a96064>
 380:	0013010c 	andi	zero,zero,19460
 384:	00051d00 	call	51d0 <_nasys_data_source_end+0x49a8>
 388:	0b3a0e03 	ldbu	r12,-6088(at)
 38c:	13490b3b 	flushd	9260(r2)
 390:	00000602 	0x602
 394:	0182891e 	bne	zero,r6,dbc <_nasys_data_source_end+0x594>
// declare the sumthree function
int sumthree(int a, int b, int c);

int main() {
 398:	31011101 	jmpi	3101110 <nasys_stack_top+0x2901110>
 39c:	00130113 	initda	19460(zero)
 3a0:	828a1f00 	call	828a1f0 <nasys_stack_top+0x7a8a1f0>
 3a4:	0a020001 	jmpi	a02000 <nasys_stack_top+0x202000>
   int z;
   int a=2;
 3a8:	000a4291 	0xa4291
 3ac:	82892000 	call	8289200 <nasys_stack_top+0x7a89200>
   int b=3;
 3b0:	01110101 	jmpi	111010 <_gp+0x108800>
 3b4:	00001331 	0x1331
   int c=4;
 3b8:	03003421 	0x3003421
 3bc:	3b0b3a0e 	bge	r7,r12,30a8 <_nasys_data_source_end+0x2880>
   z = sumthree(a,b,c);
 3c0:	3f134905 	stb	fp,19748(r7)
 3c4:	000c3c0c 	andi	zero,zero,12528
 3c8:	012e2200 	call	12e220 <_gp+0x125a10>
 3cc:	0e030c3f 	0xe030c3f
 3d0:	0b3b0b3a 	0xb3b0b3a
   // if you run in a debugger, r2 should be 9 at this point
   
   return 0;
 3d4:	0c3c0c27 	ldbio	r16,-4048(at)
}
 3d8:	00001301 	jmpi	130 <memset+0x44>
 3dc:	3f012e23 	ldbuio	fp,1208(r7)
 3e0:	3a0e030c 	andi	r8,r7,14348
 3e4:	270b3b0b 	ldhu	fp,11500(r4)
 3e8:	000c3c0c 	andi	zero,zero,12528

int sumtwo(int a, int b) {
 3ec:	11010000 	call	1101000 <nasys_stack_top+0x901000>
 3f0:	130e2501 	jmpi	130e250 <nasys_stack_top+0xb0e250>
 3f4:	1b0e030b 	ldhu	r12,14348(r3)
 3f8:	0006100e 	bge	zero,zero,1c3c <_nasys_data_source_end+0x1414>
 3fc:	00240200 	call	24020 <_gp+0x1b810>
   return a+b;
 400:	0b3e0b0b 	ldhu	r12,-2004(at)
 404:	00000e03 	ldbu	zero,56(zero)
 408:	0b002403 	ldbu	r12,144(at)
   
 40c:	030b3e0b 	ldhu	r12,11512(zero)
 410:	04000008 	cmpgei	r16,zero,0
 414:	0e030016 	blt	at,et,1018 <_nasys_data_source_end+0x7f0>
 418:	0b3b0b3a 	0xb3b0b3a
 41c:	00001349 	0x1349
 420:	03001605 	stb	r12,88(zero)
 424:	3b0b3a0e 	bge	r7,r12,3110 <_nasys_data_source_end+0x28e8>
 428:	00134905 	stb	zero,19748(zero)
 42c:	01170600 	call	117060 <_gp+0x10e850>
 430:	0b3a0b0b 	ldhu	r12,-6100(at)
 434:	13010b3b 	flushd	1068(r2)
 438:	0d070000 	call	d07000 <nasys_stack_top+0x507000>
 43c:	3a0e0300 	call	3a0e030 <nasys_stack_top+0x320e030>
 440:	490b3b0b 	ldhu	r4,11500(r9)
 444:	08000013 	initda	0(at)
 448:	13490101 	jmpi	1349010 <nasys_stack_top+0xb49010>
 44c:	00001301 	jmpi	130 <memset+0x44>
 450:	49002109 	0x49002109
 454:	000b2f13 	initda	11452(zero)
 458:	01130a00 	call	1130a0 <_gp+0x10a890>
 45c:	0b3a0b0b 	ldhu	r12,-6100(at)
 460:	13010b3b 	flushd	1068(r2)
 464:	0d0b0000 	call	d0b000 <nasys_stack_top+0x50b000>
 468:	3a0e0300 	call	3a0e030 <nasys_stack_top+0x320e030>
 46c:	490b3b0b 	ldhu	r4,11500(r9)
 470:	000a3813 	initda	10464(zero)
 474:	000f0c00 	call	f0c0 <_gp+0x68b0>
 478:	00000b0b 	ldhu	zero,44(zero)
 47c:	0301130d 	sth	r12,1100(zero)
 480:	3a0b0b0e 	bge	r7,r8,30b0 <_nasys_data_source_end+0x2888>
 484:	010b3b0b 	ldhu	r4,11500(zero)
 488:	0e000013 	initda	0(at)
 48c:	0803000d 	sth	zero,3072(at)
 490:	0b3b0b3a 	0xb3b0b3a
 494:	0a381349 	0xa381349
 498:	0f0f0000 	call	f0f000 <nasys_stack_top+0x70f000>
 49c:	490b0b00 	call	490b0b0 <nasys_stack_top+0x410b0b0>
 4a0:	10000013 	initda	0(r2)
 4a4:	0e030113 	initda	3076(at)
 4a8:	0b3a050b 	ldhu	r12,-6124(at)
 4ac:	13010b3b 	flushd	1068(r2)
 4b0:	15110000 	call	1511000 <nasys_stack_top+0xd11000>
 4b4:	000c2700 	call	c270 <_gp+0x3a60>
 4b8:	01151200 	call	115120 <_gp+0x10c910>
 4bc:	13490c27 	ldbio	r13,9264(r2)
 4c0:	00001301 	jmpi	130 <memset+0x44>
 4c4:	49000513 	initda	20(r9)
 4c8:	14000013 	initda	0(r2)
 4cc:	0e030113 	initda	3076(at)
 4d0:	0b3a050b 	ldhu	r12,-6124(at)
 4d4:	1301053b 	flushd	1044(r2)
 4d8:	0d150000 	call	d15000 <nasys_stack_top+0x515000>
 4dc:	3a0e0300 	call	3a0e030 <nasys_stack_top+0x320e030>
 4e0:	49053b0b 	ldhu	r4,5356(r9)
 4e4:	000a3813 	initda	10464(zero)
 4e8:	00261600 	call	26160 <_gp+0x1d950>
 4ec:	00001349 	0x1349
 4f0:	03011317 	ldw	r12,1100(zero)
 4f4:	3a0b0b0e 	bge	r7,r8,3124 <_nasys_data_source_end+0x28fc>
 4f8:	01053b0b 	ldhu	r4,5356(zero)
 4fc:	18000013 	initda	0(r3)
 500:	0b0b0113 	initda	11268(at)
 504:	053b0b3a 	0x53b0b3a
 508:	00001301 	jmpi	130 <memset+0x44>
 50c:	0b011719 	0xb011719
 510:	3b0b3a0b 	ldhu	r12,11496(r7)
 514:	00130105 	stb	zero,19460(zero)
 518:	000d1a00 	call	d1a0 <_gp+0x4990>
 51c:	0b3a0e03 	ldbu	r12,-6088(at)
 520:	1349053b 	flushd	9236(r2)
 524:	151b0000 	call	151b000 <nasys_stack_top+0xd1b000>
 528:	010c2701 	jmpi	10c270 <_gp+0x103a60>
 52c:	1c000013 	initda	0(r3)
 530:	0e030034 	orhi	et,at,3072
 534:	0b3b0b3a 	0xb3b0b3a
 538:	0a021349 	0xa021349
 53c:	341d0000 	call	341d000 <nasys_stack_top+0x2c1d000>
 540:	3a0e0300 	call	3a0e030 <nasys_stack_top+0x320e030>
 544:	49053b0b 	ldhu	r4,5356(r9)
 548:	020c3f13 	initda	12540(zero)
 54c:	0000000a 	0xa
 550:	25011101 	jmpi	2501110 <nasys_stack_top+0x1d01110>
 554:	030b130e 	bge	zero,r12,31a4 <_nasys_data_source_end+0x297c>
 558:	110e1b0e 	bge	r2,r4,3dc8 <_nasys_data_source_end+0x35a0>
 55c:	10011201 	jmpi	1001120 <nasys_stack_top+0x801120>
 560:	02000006 	br	564 <_nasys_data_destination+0x144>
 564:	0b0b0024 	muli	r12,at,11264
 568:	0e030b3e 	0xe030b3e
 56c:	24030000 	call	2403000 <nasys_stack_top+0x1c03000>
 570:	3e0b0b00 	call	3e0b0b0 <nasys_stack_top+0x360b0b0>
 574:	0008030b 	ldhu	zero,8204(zero)
 578:	000f0400 	call	f040 <_gp+0x6830>
 57c:	00000b0b 	ldhu	zero,44(zero)
 580:	0b000f05 	stb	r12,60(at)
 584:	0013490b 	ldhu	zero,19748(zero)
 588:	00160600 	call	16060 <_gp+0xd850>
 58c:	0b3a0e03 	ldbu	r12,-6088(at)
 590:	13490b3b 	flushd	9260(r2)
 594:	2e070000 	call	2e07000 <nasys_stack_top+0x2607000>
 598:	030c3f01 	jmpi	30c3f0 <_gp+0x303be0>
 59c:	3b0b3a0e 	bge	r7,r12,3288 <_nasys_data_source_end+0x2a60>
 5a0:	490c270b 	ldhu	r4,12444(r9)
 5a4:	12011113 	initda	1092(r2)
 5a8:	970a4001 	jmpi	970a400 <nasys_stack_top+0x8f0a400>
 5ac:	13010c42 	0x13010c42
 5b0:	05080000 	call	508000 <_gp+0x4ff7f0>
 5b4:	3a080300 	call	3a08030 <nasys_stack_top+0x3208030>
 5b8:	490b3b0b 	ldhu	r4,11500(r9)
 5bc:	00060213 	initda	6152(zero)
 5c0:	00340900 	call	34090 <_gp+0x2b880>
 5c4:	0b3a0803 	ldbu	r12,-6112(at)
 5c8:	13490b3b 	flushd	9260(r2)
 5cc:	00000602 	0x602
 5d0:	0300340a 	0x300340a
 5d4:	3b0b3a08 	cmpgei	r12,r7,11496
 5d8:	0013490b 	ldhu	zero,19748(zero)
 5dc:	00340b00 	call	340b0 <_gp+0x2b8a0>
 5e0:	0b3a0e03 	ldbu	r12,-6088(at)
 5e4:	13490b3b 	flushd	9260(r2)
 5e8:	00000602 	0x602
 5ec:	0300340c 	andi	r12,zero,208
 5f0:	3b0b3a08 	cmpgei	r12,r7,11496
 5f4:	0213490b 	ldhu	r8,19748(zero)
 5f8:	0000000a 	0xa
 5fc:	25011101 	jmpi	2501110 <nasys_stack_top+0x1d01110>
 600:	030b130e 	bge	zero,r12,3250 <_nasys_data_source_end+0x2a28>
 604:	110e1b0e 	bge	r2,r4,3e74 <_nasys_data_source_end+0x364c>
 608:	10011201 	jmpi	1001120 <nasys_stack_top+0x801120>
 60c:	02000006 	br	610 <_nasys_data_destination+0x1f0>
 610:	0b0b0024 	muli	r12,at,11264
 614:	0e030b3e 	0xe030b3e
 618:	24030000 	call	2403000 <nasys_stack_top+0x1c03000>
 61c:	3e0b0b00 	call	3e0b0b0 <nasys_stack_top+0x360b0b0>
 620:	0008030b 	ldhu	zero,8204(zero)
 624:	00160400 	call	16040 <_gp+0xd830>
 628:	0b3a0e03 	ldbu	r12,-6088(at)
 62c:	13490b3b 	flushd	9260(r2)
 630:	16050000 	call	1605000 <nasys_stack_top+0xe05000>
 634:	3a0e0300 	call	3a0e030 <nasys_stack_top+0x320e030>
 638:	49053b0b 	ldhu	r4,5356(r9)
 63c:	06000013 	initda	0(zero)
 640:	0b0b0117 	ldw	r12,11268(at)
 644:	0b3b0b3a 	0xb3b0b3a
 648:	00001301 	jmpi	130 <memset+0x44>
 64c:	03000d07 	ldb	r12,52(zero)
 650:	3b0b3a0e 	bge	r7,r12,333c <_nasys_data_source_end+0x2b14>
 654:	0013490b 	ldhu	zero,19748(zero)
 658:	01010800 	call	101080 <_gp+0xf8870>
 65c:	13011349 	0x13011349
 660:	21090000 	call	2109000 <nasys_stack_top+0x1909000>
 664:	2f134900 	call	2f13490 <nasys_stack_top+0x2713490>
 668:	0a00000b 	ldhu	r8,0(at)
 66c:	0b0b0113 	initda	11268(at)
 670:	0b3b0b3a 	0xb3b0b3a
 674:	00001301 	jmpi	130 <memset+0x44>
 678:	03000d0b 	ldhu	r12,52(zero)
 67c:	3b0b3a0e 	bge	r7,r12,3368 <_nasys_data_source_end+0x2b40>
 680:	3813490b 	ldhu	zero,19748(r7)
 684:	0c00000a 	0xc00000a
 688:	0b0b000f 	ldh	r12,11264(at)
 68c:	130d0000 	call	130d000 <nasys_stack_top+0xb0d000>
 690:	0b0e0301 	jmpi	b0e030 <nasys_stack_top+0x30e030>
 694:	3b0b3a0b 	ldhu	r12,11496(r7)
 698:	0013010b 	ldhu	zero,19460(zero)
 69c:	000d0e00 	call	d0e0 <_gp+0x48d0>
 6a0:	0b3a0803 	ldbu	r12,-6112(at)
 6a4:	13490b3b 	flushd	9260(r2)
 6a8:	00000a38 	rdprs	zero,zero,40
 6ac:	0b000f0f 	ldh	r12,60(at)
 6b0:	0013490b 	ldhu	zero,19748(zero)
 6b4:	01131000 	call	113100 <_gp+0x10a8f0>
 6b8:	050b0e03 	ldbu	r20,11320(zero)
 6bc:	0b3b0b3a 	0xb3b0b3a
 6c0:	00001301 	jmpi	130 <memset+0x44>
 6c4:	27001511 	0x27001511
 6c8:	1200000c 	andi	r8,r2,0
 6cc:	0c270115 	stw	r16,-25596(at)
 6d0:	13011349 	0x13011349
 6d4:	05130000 	call	513000 <_gp+0x50a7f0>
 6d8:	00134900 	call	13490 <_gp+0xac80>
 6dc:	01131400 	call	113140 <_gp+0x10a930>
 6e0:	050b0e03 	ldbu	r20,11320(zero)
 6e4:	053b0b3a 	0x53b0b3a
 6e8:	00001301 	jmpi	130 <memset+0x44>
 6ec:	03000d15 	stw	r12,52(zero)
 6f0:	3b0b3a0e 	bge	r7,r12,33dc <_nasys_data_source_end+0x2bb4>
 6f4:	38134905 	stb	zero,19748(r7)
 6f8:	1600000a 	0x1600000a
 6fc:	13490026 	beq	r2,r13,2b00 <_nasys_data_source_end+0x22d8>
 700:	13170000 	call	1317000 <nasys_stack_top+0xb17000>
 704:	0b0e0301 	jmpi	b0e030 <nasys_stack_top+0x30e030>
 708:	3b0b3a0b 	ldhu	r12,11496(r7)
 70c:	00130105 	stb	zero,19460(zero)
 710:	01131800 	call	113180 <_gp+0x10a970>
 714:	0b3a0b0b 	ldhu	r12,-6100(at)
 718:	1301053b 	flushd	1044(r2)
 71c:	17190000 	call	1719000 <nasys_stack_top+0xf19000>
 720:	3a0b0b01 	jmpi	3a0b0b0 <nasys_stack_top+0x320b0b0>
 724:	01053b0b 	ldhu	r4,5356(zero)
 728:	1a000013 	initda	0(r3)
 72c:	0e03000d 	sth	et,3072(at)
 730:	053b0b3a 	0x53b0b3a
 734:	00001349 	0x1349
 738:	2701151b 	flushda	1108(r4)
 73c:	0013010c 	andi	zero,zero,19460
 740:	012e1c00 	call	12e1c0 <_gp+0x1259b0>
 744:	0e030c3f 	0xe030c3f
 748:	0b3b0b3a 	0xb3b0b3a
 74c:	01110c27 	ldbio	r4,17456(zero)
 750:	06400112 	0x6400112
 754:	010c4296 	blt	zero,r4,3862 <_nasys_data_source_end+0x303a>
 758:	1d000013 	initda	0(r3)
 75c:	0e030005 	stb	et,3072(at)
 760:	0b3b0b3a 	0xb3b0b3a
 764:	06021349 	0x6021349
 768:	051e0000 	call	51e000 <_gp+0x5157f0>
 76c:	3a080300 	call	3a08030 <nasys_stack_top+0x3208030>
 770:	490b3b0b 	ldhu	r4,11500(r9)
 774:	00060213 	initda	6152(zero)
 778:	00341f00 	call	341f0 <_gp+0x2b9e0>
 77c:	0b3a0803 	ldbu	r12,-6112(at)
 780:	13490b3b 	flushd	9260(r2)
 784:	00000602 	0x602
 788:	03003420 	cmpeqi	r12,zero,208
 78c:	3b0b3a0e 	bge	r7,r12,3478 <_nasys_data_source_end+0x2c50>
 790:	0213490b 	ldhu	r8,19748(zero)
 794:	21000006 	br	798 <_nasys_data_destination+0x378>
 798:	0e03000a 	0xe03000a
 79c:	0b3b0b3a 	0xb3b0b3a
 7a0:	0b220000 	call	b22000 <nasys_stack_top+0x322000>
 7a4:	01065501 	jmpi	106550 <_gp+0xfdd40>
 7a8:	23000013 	initda	0(r4)
 7ac:	01018289 	0x1018289
 7b0:	00000111 	0x111
 7b4:	01828a24 	muli	r6,zero,2600
 7b8:	910a0200 	call	910a020 <nasys_stack_top+0x890a020>
 7bc:	00000a42 	0xa42
 7c0:	01828925 	stbio	r6,2596(zero)
 7c4:	31011101 	jmpi	3101110 <nasys_stack_top+0x2901110>
 7c8:	26000013 	initda	0(r4)
 7cc:	0e030034 	orhi	et,at,3072
 7d0:	053b0b3a 	0x53b0b3a
 7d4:	0c3f1349 	0xc3f1349
 7d8:	00000c3c 	xorhi	zero,zero,48
 7dc:	03003427 	ldbio	r12,208(zero)
 7e0:	3b0b3a0e 	bge	r7,r12,34cc <_nasys_data_source_end+0x2ca4>
 7e4:	3f13490b 	ldhu	fp,19748(r7)
 7e8:	000c3c0c 	andi	zero,zero,12528
 7ec:	012e2800 	call	12e280 <_gp+0x125a70>
 7f0:	0e030c3f 	0xe030c3f
 7f4:	0b3b0b3a 	0xb3b0b3a
 7f8:	0c3c0c27 	ldbio	r16,-4048(at)
 7fc:	01000000 	call	100000 <_gp+0xf77f0>
 800:	0e250111 	0xe250111
 804:	0e030b13 	initda	3116(at)
 808:	01110e1b 	flushda	17464(zero)
 80c:	06100112 	0x6100112
 810:	2e020000 	call	2e02000 <nasys_stack_top+0x2602000>
 814:	030c3f00 	call	30c3f0 <_gp+0x303be0>
 818:	3b0b3a0e 	bge	r7,r12,3504 <_nasys_data_source_end+0x2cdc>
 81c:	1201110b 	ldhu	r8,1092(r2)
 820:	970a4001 	jmpi	970a400 <nasys_stack_top+0x8f0a400>
 824:	00000c42 	0xc42
 828:	3f012e03 	ldbu	fp,1208(r7)
 82c:	3a0e030c 	andi	r8,r7,14348
 830:	270b3b0b 	ldhu	fp,11500(r4)
 834:	1201110c 	andi	r8,r2,1092
 838:	97064001 	jmpi	9706400 <nasys_stack_top+0x8f06400>
 83c:	13010c42 	0x13010c42
 840:	05040000 	call	504000 <_gp+0x4fb7f0>
 844:	3a0e0300 	call	3a0e030 <nasys_stack_top+0x320e030>
 848:	490b3b0b 	ldhu	r4,11500(r9)
 84c:	00060213 	initda	6152(zero)
 850:	82890500 	call	8289050 <nasys_stack_top+0x7a89050>
 854:	01110001 	jmpi	111000 <_gp+0x1087f0>
 858:	24060000 	call	2406000 <nasys_stack_top+0x1c06000>
 85c:	3e0b0b00 	call	3e0b0b0 <nasys_stack_top+0x360b0b0>
 860:	0008030b 	ldhu	zero,8204(zero)
	...

Disassembly of section .debug_line:

00000000 <.debug_line>:
   0:	00000068 	cmpgeui	zero,zero,1
   4:	00480002 	0x480002
   8:	01010000 	call	101000 <_gp+0xf87f0>
   c:	000d0efb 	flushd	13371(zero)
  10:	01010101 	jmpi	101010 <_gp+0xf8800>
  14:	01000000 	call	100000 <_gp+0xf77f0>
  18:	2e010000 	call	2e01000 <nasys_stack_top+0x2601000>
  1c:	2e2e2f2e 	bgeu	r5,et,ffffb8dc <nasys_stack_top+0xff7fb8dc>
  20:	2f2e2e2f 	ldhio	fp,-18248(r5)
  24:	732f2e2e 	bgeu	r14,r12,ffffbce0 <nasys_stack_top+0xff7fbce0>
  28:	6e2f6372 	custom	141,r23,r13,c24
  2c:	696c7765 	stbio	r5,-20003(r13)
.text
.global sumthree
sumthree:

addi sp, sp, -24;
  30:	2e312d62 	0x2e312d62

stw ra, 20(sp);
  34:	6c2f3631 	0x6c2f3631
stw fp, 16(sp);
  38:	6c676269 	0x6c676269
addi fp, fp, -24;
  3c:	2f73736f 	ldhio	ea,-12851(r5)
stw r4, 12(sp);
  40:	736f696e 	bgeu	r14,r13,ffffbde9 <nasys_stack_top+0xff7fbde9>
stw r5, 8(sp);
  44:	63000032 	custom	0,c0,c12,c12
stw r6, 4(sp);
  48:	2e307472 	custom	209,et,c5,c24


call sumtwo
  4c:	00010053 	initda	1025(zero)

stw r2, 0(sp);
  50:	05000000 	call	500000 <_gp+0x4f77f0>
stw r4, 0(sp);
  54:	00000002 	0x2
stw r5, 4(sp);
  58:	013a0300 	call	13a030 <_gp+0x131820>

call sumtwo
  5c:	4b4b4e4b 	ldhu	r13,11577(r9)

stw r2, 0(sp);
  60:	4b524b51 	0x4b524b51

ldw ra, 20(sp);
  64:	024c4b51 	0x24c4b51

ret
  68:	01010004 	movi	r4,1024
  6c:	00000066 	beq	zero,zero,71 <__start_2+0x1>
  70:	003a0002 	0x3a0002
  74:	01010000 	call	101000 <_gp+0xf87f0>
  78:	000d0efb 	flushd	13371(zero)
  7c:	01010101 	jmpi	101010 <_gp+0xf8800>
  80:	01000000 	call	100000 <_gp+0xf77f0>
  84:	43010000 	call	4301000 <nasys_stack_top+0x3b01000>
  88:	73552f3a 	div	r10,r14,r13
  8c:	2f737265 	stbio	ea,-12855(r5)
  90:	6e61696c 	andhi	bt,r13,34213
  94:	442f656e 	bgeu	r8,r16,ffffbe2d <nasys_stack_top+0xff7fbe2d>
  98:	746b7365 	stbio	r17,-21043(r14)
  9c:	612f706f 	ldhio	r4,-16959(r12)
  a0:	00327133 	initd	-13884(zero)
  a4:	69616d00 	call	69616d0 <nasys_stack_top+0x61616d0>
  a8:	00632e6e 	bgeu	zero,at,ffff8d65 <nasys_stack_top+0xff7f8d65>
  ac:	00000001 	jmpi	0 <nasys_data_mem>
  b0:	98020500 	call	9802050 <nasys_stack_top+0x9002050>
  b4:	15000003 	ldbu	r20,0(r2)
  b8:	838383f4 	orhi	r14,r16,3599
  bc:	024b3f08 	cmpgei	r9,zero,11516
  c0:	01010014 	movui	r4,1024
  c4:	ec020500 	call	ec02050 <nasys_stack_top+0xe402050>
  c8:	03000003 	ldbu	r12,0(zero)
  cc:	3d08010e 	bge	r7,r20,20d4 <_nasys_data_source_end+0x18ac>
  d0:	001002bc 	xorhi	zero,zero,16394
  d4:	00790101 	jmpi	79010 <_gp+0x70800>
  d8:	00020000 	call	2000 <_nasys_data_source_end+0x17d8>
  dc:	0000005c 	xori	zero,zero,1
  e0:	0efb0101 	jmpi	efb010 <nasys_stack_top+0x6fb010>
  e4:	0101000d 	sth	r4,1024(zero)
  e8:	00000101 	jmpi	10 <nasys_data_mem+0x10>
  ec:	00000100 	call	10 <nasys_data_mem+0x10>
  f0:	2f2e2e01 	jmpi	2f2e2e0 <nasys_stack_top+0x272e2e0>
  f4:	2e2f2e2e 	bgeu	r5,et,ffffbdb0 <nasys_stack_top+0xff7fbdb0>
  f8:	2e2e2f2e 	bgeu	r5,et,ffffb9b8 <nasys_stack_top+0xff7fb9b8>
  fc:	6372732f 	ldhio	r13,-13876(r12)
 100:	77656e2f 	ldhio	ea,-27208(r14)
 104:	2d62696c 	andhi	r21,r5,35237
 108:	36312e31 	0x36312e31
 10c:	62696c2f 	ldhio	r9,-23120(r12)
 110:	736f6c67 	ldbio	r13,-16975(r14)
 114:	696e2f73 	initd	-18243(r13)
 118:	0032736f 	ldhio	zero,-13875(zero)
 11c:	736f6e00 	call	736f6e0 <nasys_stack_top+0x6b6f6e0>
 120:	635f7379 	0x635f7379
 124:	2e307472 	custom	209,et,c5,c24
 128:	00010063 	ldbuio	zero,1025(zero)
 12c:	75623c00 	call	75623c0 <nasys_stack_top+0x6d623c0>
 130:	2d746c69 	0x2d746c69
 134:	003e6e69 	0x3e6e69
 138:	00000000 	call	0 <nasys_data_mem>
 13c:	6c020500 	call	6c02050 <nasys_stack_top+0x6402050>
 140:	03000000 	call	300000 <_gp+0x2f77f0>
 144:	13500122 	0x13500122
 148:	4b814bf1 	0x4b814bf1
 14c:	18024c4c 	andi	zero,r3,2353
 150:	64010100 	call	6401010 <nasys_stack_top+0x5c01010>
 154:	02000001 	jmpi	200000 <_gp+0x1f77f0>
 158:	00014d00 	call	14d0 <_nasys_data_source_end+0xca8>
 15c:	fb010100 	call	fb01010 <nasys_stack_top+0xf301010>
 160:	01000d0e 	bge	zero,r4,198 <memset+0xac>
 164:	00010101 	jmpi	1010 <_nasys_data_source_end+0x7e8>
 168:	00010000 	call	1000 <_nasys_data_source_end+0x7d8>
 16c:	2e2e0100 	call	2e2e010 <nasys_stack_top+0x262e010>
 170:	2f2e2e2f 	ldhio	fp,-18248(r5)
 174:	2e2f2e2e 	bgeu	r5,et,ffffbe30 <nasys_stack_top+0xff7fbe30>
 178:	72732f2e 	bgeu	r14,r9,ffffce38 <nasys_stack_top+0xff7fce38>
 17c:	656e2f63 	ldbuio	r21,-18243(r12)
 180:	62696c77 	ldwio	r9,-23119(r12)
 184:	312e312d 	sthio	r4,-18236(r6)
 188:	696c2f36 	bltu	r13,r5,ffffb248 <nasys_stack_top+0xff7fb248>
 18c:	6f6c6762 	0x6f6c6762
 190:	6e2f7373 	initd	-16947(r13)
 194:	32736f69 	0x32736f69
 198:	75622f00 	call	75622f0 <nasys_stack_top+0x6d622f0>
 19c:	2f646c69 	0x2f646c69
 1a0:	75627773 	initd	-30243(r14)
 1a4:	2f646c69 	0x2f646c69
 1a8:	6e2f4a53 	initda	-17111(r13)
 1ac:	74686769 	0x74686769
 1b0:	312f796c 	andhi	r4,r6,48613
 1b4:	2f312e33 	initd	-15176(r5)
 1b8:	2f323631 	0x2f323631
 1bc:	2f32336c 	andhi	fp,r5,51405
 1c0:	6b726f77 	ldwio	r13,-13891(r13)
 1c4:	2f70692f 	ldhio	ea,-15964(r5)
 1c8:	63706f73 	initd	-15939(r12)
 1cc:	7070612f 	ldhio	at,-15996(r14)
 1d0:	756e672f 	ldhio	r21,-18020(r14)
 1d4:	4955422f 	ldhio	r5,21768(r9)
 1d8:	672f444c 	andi	fp,r12,48401
 1dc:	3734756e 	bgeu	r6,fp,ffffd3b5 <nasys_stack_top+0xff7fd3b5>
 1e0:	692d482f 	ldhio	r4,-19168(r13)
 1e4:	2d363836 	bltu	r5,r20,ffffdac8 <nasys_stack_top+0xff7fdac8>
 1e8:	6c2d6370 	cmpltui	r16,r13,46477
 1ec:	78756e69 	0x78756e69
 1f0:	756e672d 	sthio	r21,-18020(r14)
 1f4:	62696c2f 	ldhio	r9,-23120(r12)
 1f8:	6363672f 	ldhio	r13,-29284(r12)
 1fc:	6f696e2f 	ldhio	ea,-23112(r13)
 200:	652d3273 	initd	-19255(r12)
 204:	342f666c 	andhi	r16,r6,48537
 208:	332e372e 	bgeu	r6,r12,ffffbae8 <nasys_stack_top+0xff7fbae8>
 20c:	636e692f 	ldhio	r13,-18012(r12)
 210:	6564756c 	andhi	r21,r12,37333
 214:	75622f00 	call	75622f0 <nasys_stack_top+0x6d622f0>
 218:	2f646c69 	0x2f646c69
 21c:	75627773 	initd	-30243(r14)
 220:	2f646c69 	0x2f646c69
 224:	6e2f4a53 	initda	-17111(r13)
 228:	74686769 	0x74686769
 22c:	312f796c 	andhi	r4,r6,48613
 230:	2f312e33 	initd	-15176(r5)
 234:	2f323631 	0x2f323631
 238:	2f32336c 	andhi	fp,r5,51405
 23c:	6b726f77 	ldwio	r13,-13891(r13)
 240:	2f70692f 	ldhio	ea,-15964(r5)
 244:	63706f73 	initd	-15939(r12)
 248:	7070612f 	ldhio	at,-15996(r14)
 24c:	756e672f 	ldhio	r21,-18020(r14)
 250:	4955422f 	ldhio	r5,21768(r9)
 254:	672f444c 	andi	fp,r12,48401
 258:	3734756e 	bgeu	r6,fp,ffffd431 <nasys_stack_top+0xff7fd431>
 25c:	6372732f 	ldhio	r13,-13876(r12)
 260:	77656e2f 	ldhio	ea,-27208(r14)
 264:	2d62696c 	andhi	r21,r5,35237
 268:	36312e31 	0x36312e31
 26c:	77656e2f 	ldhio	ea,-27208(r14)
 270:	2f62696c 	andhi	ea,r5,35237
 274:	6362696c 	andhi	r13,r12,35237
 278:	636e692f 	ldhio	r13,-18012(r12)
 27c:	6564756c 	andhi	r21,r12,37333
 280:	7a5f0000 	call	7a5f000 <nasys_stack_top+0x725f000>
 284:	5f6f7265 	stbio	ea,-16951(r11)
 288:	2e737362 	0x2e737362
 28c:	00010063 	ldbuio	zero,1025(zero)
 290:	64747300 	call	6474730 <nasys_stack_top+0x5c74730>
 294:	2e666564 	muli	bt,r5,-26219
 298:	00020068 	cmpgeui	zero,zero,2049
 29c:	72747300 	call	7274730 <nasys_stack_top+0x6a74730>
 2a0:	2e676e69 	0x2e676e69
 2a4:	00030068 	cmpgeui	zero,zero,3073
 2a8:	05000000 	call	500000 <_gp+0x4f77f0>
 2ac:	0000b002 	0xb002
 2b0:	01220300 	call	122030 <_gp+0x119820>
 2b4:	04021114 	movui	r16,2116
 2b8:	15010100 	call	1501010 <nasys_stack_top+0xd01010>
 2bc:	02000002 	0x2000002
 2c0:	0001f800 	call	1f80 <_nasys_data_source_end+0x1758>
 2c4:	fb010100 	call	fb01010 <nasys_stack_top+0xf301010>
 2c8:	01000d0e 	bge	zero,r4,300 <__call_exitprocs+0x138>
 2cc:	00010101 	jmpi	1010 <_nasys_data_source_end+0x7e8>
 2d0:	00010000 	call	1000 <_nasys_data_source_end+0x7d8>
 2d4:	2e2e0100 	call	2e2e010 <nasys_stack_top+0x262e010>
 2d8:	2f2e2e2f 	ldhio	fp,-18248(r5)
 2dc:	2e2f2e2e 	bgeu	r5,et,ffffbf98 <nasys_stack_top+0xff7fbf98>
 2e0:	2e2e2f2e 	bgeu	r5,et,ffffbba0 <nasys_stack_top+0xff7fbba0>
 2e4:	6372732f 	ldhio	r13,-13876(r12)
 2e8:	77656e2f 	ldhio	ea,-27208(r14)
 2ec:	2d62696c 	andhi	r21,r5,35237
 2f0:	36312e31 	0x36312e31
 2f4:	77656e2f 	ldhio	ea,-27208(r14)
 2f8:	2f62696c 	andhi	ea,r5,35237
 2fc:	6362696c 	andhi	r13,r12,35237
 300:	6474732f 	ldhio	r17,-11828(r12)
 304:	0062696c 	andhi	at,zero,35237
 308:	6975622f 	ldhio	r5,-10872(r13)
 30c:	732f646c 	andhi	r12,r14,48529
 310:	69756277 	ldwio	r5,-10871(r13)
 314:	532f646c 	andhi	r12,r10,48529
 318:	696e2f4a 	0x696e2f4a
 31c:	6c746867 	ldbio	r17,-11871(r13)
 320:	33312f79 	0x33312f79
 324:	312f312e 	bgeu	r6,r4,ffffbfec <nasys_stack_top+0xff7fbfec>
 328:	6c2f3236 	bltu	r13,r16,ffffbff4 <nasys_stack_top+0xff7fbff4>
 32c:	772f3233 	initd	-17208(r14)
 330:	2f6b726f 	ldhio	ea,-21047(r5)
 334:	732f7069 	0x732f7069
 338:	2f63706f 	ldhio	ea,-29247(r5)
 33c:	2f707061 	0x2f707061
 340:	2f756e67 	ldbio	ea,-10823(r5)
 344:	4c495542 	0x4c495542
 348:	6e672f44 	addi	bt,r13,-25411
 34c:	2f373475 	stwio	fp,-9007(r5)
 350:	2f637273 	initd	-29239(r5)
 354:	6c77656e 	bgeu	r13,r17,ffffe0ed <nasys_stack_top+0xff7fe0ed>
 358:	312d6269 	0x312d6269
 35c:	2f36312e 	bgeu	r5,fp,ffffdc24 <nasys_stack_top+0xff7fdc24>
 360:	6c77656e 	bgeu	r13,r17,ffffe0f9 <nasys_stack_top+0xff7fe0f9>
 364:	6c2f6269 	0x6c2f6269
 368:	2f636269 	0x2f636269
 36c:	6c636e69 	0x6c636e69
 370:	2f656475 	stwio	ea,-27247(r5)
 374:	00737973 	initd	-12827(zero)
 378:	6975622f 	ldhio	r5,-10872(r13)
 37c:	732f646c 	andhi	r12,r14,48529
 380:	69756277 	ldwio	r5,-10871(r13)
 384:	532f646c 	andhi	r12,r10,48529
 388:	696e2f4a 	0x696e2f4a
 38c:	6c746867 	ldbio	r17,-11871(r13)
 390:	33312f79 	0x33312f79
 394:	312f312e 	bgeu	r6,r4,ffffc05c <nasys_stack_top+0xff7fc05c>
// declare the sumthree function
int sumthree(int a, int b, int c);

int main() {
 398:	6c2f3236 	bltu	r13,r16,ffffc064 <nasys_stack_top+0xff7fc064>
 39c:	772f3233 	initd	-17208(r14)
 3a0:	2f6b726f 	ldhio	ea,-21047(r5)
 3a4:	732f7069 	0x732f7069
   int z;
   int a=2;
 3a8:	2f63706f 	ldhio	ea,-29247(r5)
 3ac:	2f707061 	0x2f707061
   int b=3;
 3b0:	2f756e67 	ldbio	ea,-10823(r5)
 3b4:	4c495542 	0x4c495542
   int c=4;
 3b8:	6e672f44 	addi	bt,r13,-25411
 3bc:	2f373475 	stwio	fp,-9007(r5)
   z = sumthree(a,b,c);
 3c0:	36692d48 	cmpgei	bt,r6,-23371
 3c4:	702d3638 	rdprs	zero,r14,-19240
 3c8:	696c2d63 	ldbuio	r5,-20299(r13)
 3cc:	2d78756e 	bgeu	r5,r21,ffffe5a5 <nasys_stack_top+0xff7fe5a5>
 3d0:	2f756e67 	ldbio	ea,-10823(r5)
   // if you run in a debugger, r2 should be 9 at this point
   
   return 0;
 3d4:	2f62696c 	andhi	ea,r5,35237
}
 3d8:	2f636367 	ldbio	ea,-29299(r5)
 3dc:	736f696e 	bgeu	r14,r13,ffffc185 <nasys_stack_top+0xff7fc185>
 3e0:	6c652d32 	custom	180,c18,r13,c17
 3e4:	2e342f66 	beq	r5,et,ffffd4a5 <nasys_stack_top+0xff7fd4a5>
 3e8:	2f332e37 	ldwio	fp,-13128(r5)

int sumtwo(int a, int b) {
 3ec:	6c636e69 	0x6c636e69
 3f0:	00656475 	stwio	at,-27247(zero)
 3f4:	6975622f 	ldhio	r5,-10872(r13)
 3f8:	732f646c 	andhi	r12,r14,48529
 3fc:	69756277 	ldwio	r5,-10871(r13)
   return a+b;
 400:	532f646c 	andhi	r12,r10,48529
 404:	696e2f4a 	0x696e2f4a
 408:	6c746867 	ldbio	r17,-11871(r13)
   
 40c:	33312f79 	0x33312f79
 410:	312f312e 	bgeu	r6,r4,ffffc0d8 <nasys_stack_top+0xff7fc0d8>
 414:	6c2f3236 	bltu	r13,r16,ffffc0e0 <nasys_stack_top+0xff7fc0e0>
 418:	772f3233 	initd	-17208(r14)
 41c:	2f6b726f 	ldhio	ea,-21047(r5)
 420:	732f7069 	0x732f7069
 424:	2f63706f 	ldhio	ea,-29247(r5)
 428:	2f707061 	0x2f707061
 42c:	2f756e67 	ldbio	ea,-10823(r5)
 430:	4c495542 	0x4c495542
 434:	6e672f44 	addi	bt,r13,-25411
 438:	2f373475 	stwio	fp,-9007(r5)
 43c:	2f637273 	initd	-29239(r5)
 440:	6c77656e 	bgeu	r13,r17,ffffe1d9 <nasys_stack_top+0xff7fe1d9>
 444:	312d6269 	0x312d6269
 448:	2f36312e 	bgeu	r5,fp,ffffdd10 <nasys_stack_top+0xff7fdd10>
 44c:	6c77656e 	bgeu	r13,r17,ffffe1e5 <nasys_stack_top+0xff7fe1e5>
 450:	6c2f6269 	0x6c2f6269
 454:	2f636269 	0x2f636269
 458:	6c636e69 	0x6c636e69
 45c:	00656475 	stwio	at,-27247(zero)
 460:	69786500 	call	6978650 <nasys_stack_top+0x6178650>
 464:	00632e74 	movhi	at,36025
 468:	6c000001 	jmpi	6c00000 <nasys_stack_top+0x6400000>
 46c:	2e6b636f 	ldhio	bt,-21107(r5)
 470:	00020068 	cmpgeui	zero,zero,2049
 474:	79745f00 	call	79745f0 <nasys_stack_top+0x71745f0>
 478:	2e736570 	cmpltui	bt,r5,52629
 47c:	00020068 	cmpgeui	zero,zero,2049
 480:	64747300 	call	6474730 <nasys_stack_top+0x5c74730>
 484:	2e666564 	muli	bt,r5,-26219
 488:	00030068 	cmpgeui	zero,zero,3073
 48c:	65657200 	call	6565720 <nasys_stack_top+0x5d65720>
 490:	682e746e 	bgeu	r13,zero,ffffbe65 <nasys_stack_top+0xff7fbe65>
 494:	00000200 	call	20 <nasys_data_mem+0x20>
 498:	6c647473 	initd	-28207(r13)
 49c:	682e6269 	0x682e6269
 4a0:	00000400 	call	40 <sumthree+0x10>
 4a4:	78657461 	0x78657461
 4a8:	682e7469 	0x682e7469
 4ac:	00000100 	call	10 <nasys_data_mem+0x10>
 4b0:	73696e75 	stwio	r13,-23111(r14)
 4b4:	682e6474 	orhi	zero,r13,47505
 4b8:	00000200 	call	20 <nasys_data_mem+0x20>
 4bc:	02050000 	call	205000 <_gp+0x1fc7f0>
 4c0:	000000b4 	movhi	zero,2
 4c4:	4b013b03 	ldbu	r12,1260(r9)
 4c8:	4d4b8249 	0x4d4b8249
 4cc:	024c3d08 	cmpgei	r9,zero,12532
 4d0:	01010008 	cmpgei	r4,zero,1024
 4d4:	0000016f 	ldhio	zero,5(zero)
 4d8:	01690002 	0x1690002
 4dc:	01010000 	call	101000 <_gp+0xf87f0>
 4e0:	000d0efb 	flushd	13371(zero)
 4e4:	01010101 	jmpi	101010 <_gp+0xf8800>
 4e8:	01000000 	call	100000 <_gp+0xf77f0>
 4ec:	2f010000 	call	2f01000 <nasys_stack_top+0x2701000>
 4f0:	6c697562 	0x6c697562
 4f4:	77732f64 	muli	ea,r14,-13123
 4f8:	6c697562 	0x6c697562
 4fc:	4a532f64 	muli	r9,r9,19645
 500:	67696e2f 	ldhio	ea,-23112(r12)
 504:	796c7468 	cmpgeui	r5,r15,45521
 508:	2e33312f 	ldhio	et,-13116(r5)
 50c:	36312f31 	0x36312f31
 510:	336c2f32 	custom	188,c22,c6,c13
 514:	6f772f32 	custom	188,c27,r13,c29
 518:	692f6b72 	custom	173,r23,r13,c4
 51c:	6f732f70 	cmpltui	ea,r13,52413
 520:	612f6370 	cmpltui	r4,r12,48525
 524:	672f7070 	cmpltui	fp,r12,48577
 528:	422f756e 	bgeu	r8,r8,ffffc301 <nasys_stack_top+0xff7fc301>
 52c:	444c4955 	stw	r17,12581(r8)
 530:	756e672f 	ldhio	r21,-18020(r14)
 534:	732f3734 	orhi	r12,r14,48348
 538:	6e2f6372 	custom	141,r23,r13,c24
 53c:	696c7765 	stbio	r5,-20003(r13)
 540:	2e312d62 	0x2e312d62
 544:	6e2f3631 	0x6e2f3631
 548:	696c7765 	stbio	r5,-20003(r13)
 54c:	696c2f62 	0x696c2f62
 550:	692f6362 	0x692f6362
 554:	756c636e 	bgeu	r14,r21,ffffb6e5 <nasys_stack_top+0xff7fb6e5>
 558:	732f6564 	muli	r12,r14,-17003
 55c:	2f007379 	0x2f007379
 560:	6c697562 	0x6c697562
 564:	77732f64 	muli	ea,r14,-13123
 568:	6c697562 	0x6c697562
 56c:	4a532f64 	muli	r9,r9,19645
 570:	67696e2f 	ldhio	ea,-23112(r12)
 574:	796c7468 	cmpgeui	r5,r15,45521
 578:	2e33312f 	ldhio	et,-13116(r5)
 57c:	36312f31 	0x36312f31
 580:	336c2f32 	custom	188,c22,c6,c13
 584:	6f772f32 	custom	188,c27,r13,c29
 588:	692f6b72 	custom	173,r23,r13,c4
 58c:	6f732f70 	cmpltui	ea,r13,52413
 590:	612f6370 	cmpltui	r4,r12,48525
 594:	672f7070 	cmpltui	fp,r12,48577
 598:	422f756e 	bgeu	r8,r8,ffffc371 <nasys_stack_top+0xff7fc371>
 59c:	444c4955 	stw	r17,12581(r8)
 5a0:	756e672f 	ldhio	r21,-18020(r14)
 5a4:	482f3734 	orhi	zero,r9,48348
 5a8:	3836692d 	sthio	zero,-9820(r7)
 5ac:	63702d36 	bltu	r12,r13,ffffc664 <nasys_stack_top+0xff7fc664>
 5b0:	6e696c2d 	sthio	bt,-23120(r13)
 5b4:	672d7875 	stwio	fp,-18975(r12)
 5b8:	6c2f756e 	bgeu	r13,r16,ffffc391 <nasys_stack_top+0xff7fc391>
 5bc:	672f6269 	0x672f6269
 5c0:	6e2f6363 	ldbuio	et,-17011(r13)
 5c4:	32736f69 	0x32736f69
 5c8:	666c652d 	sthio	bt,-20076(r12)
 5cc:	372e342f 	ldhio	fp,-18224(r6)
 5d0:	692f332e 	bgeu	r13,r4,ffffc2a0 <nasys_stack_top+0xff7fc2a0>
 5d4:	756c636e 	bgeu	r14,r21,ffffb765 <nasys_stack_top+0xff7fb765>
 5d8:	2e006564 	muli	et,r5,405
 5dc:	2e2e2f2e 	bgeu	r5,et,ffffbe9c <nasys_stack_top+0xff7fbe9c>
 5e0:	2f2e2e2f 	ldhio	fp,-18248(r5)
 5e4:	2e2f2e2e 	bgeu	r5,et,ffffc2a0 <nasys_stack_top+0xff7fc2a0>
 5e8:	72732f2e 	bgeu	r14,r9,ffffd2a8 <nasys_stack_top+0xff7fd2a8>
 5ec:	656e2f63 	ldbuio	r21,-18243(r12)
 5f0:	62696c77 	ldwio	r9,-23119(r12)
 5f4:	312e312d 	sthio	r4,-18236(r6)
 5f8:	656e2f36 	bltu	r12,r21,ffffbeb8 <nasys_stack_top+0xff7fbeb8>
 5fc:	62696c77 	ldwio	r9,-23119(r12)
 600:	62696c2f 	ldhio	r9,-23120(r12)
 604:	65722f63 	ldbuio	r21,-14147(r12)
 608:	00746e65 	stbio	at,-11847(zero)
 60c:	636f6c00 	call	636f6c0 <nasys_stack_top+0x5b6f6c0>
 610:	00682e6b 	ldhuio	at,-24391(zero)
 614:	5f000001 	jmpi	5f00000 <nasys_stack_top+0x5700000>
 618:	65707974 	orhi	r21,r12,49637
 61c:	00682e73 	initd	-24391(zero)
 620:	73000001 	jmpi	7300000 <nasys_stack_top+0x6b00000>
 624:	65646474 	orhi	r21,r12,37265
 628:	00682e66 	beq	zero,at,ffffa6e5 <nasys_stack_top+0xff7fa6e5>
 62c:	72000002 	0x72000002
 630:	746e6565 	stbio	r17,-18027(r14)
 634:	0100682e 	bgeu	zero,r4,7d8 <_nasys_data_destination+0x3b8>
 638:	6d690000 	call	6d69000 <nasys_stack_top+0x6569000>
 63c:	65727570 	cmpltui	r21,r12,51669
 640:	0300632e 	bgeu	zero,r12,7d0 <_nasys_data_destination+0x3b0>
 644:	ed000000 	call	ed00000 <nasys_stack_top+0xe500000>
 648:	02000001 	jmpi	200000 <_gp+0x1f77f0>
 64c:	00015100 	call	1510 <_nasys_data_source_end+0xce8>
 650:	fb010100 	call	fb01010 <nasys_stack_top+0xf301010>
 654:	01000d0e 	bge	zero,r4,68c <_nasys_data_destination+0x26c>
 658:	00010101 	jmpi	1010 <_nasys_data_source_end+0x7e8>
 65c:	00010000 	call	1000 <_nasys_data_source_end+0x7d8>
 660:	2e2e0100 	call	2e2e010 <nasys_stack_top+0x262e010>
 664:	2f2e2e2f 	ldhio	fp,-18248(r5)
 668:	2e2f2e2e 	bgeu	r5,et,ffffc324 <nasys_stack_top+0xff7fc324>
 66c:	2e2e2f2e 	bgeu	r5,et,ffffbf2c <nasys_stack_top+0xff7fbf2c>
 670:	6372732f 	ldhio	r13,-13876(r12)
 674:	77656e2f 	ldhio	ea,-27208(r14)
 678:	2d62696c 	andhi	r21,r5,35237
 67c:	36312e31 	0x36312e31
 680:	77656e2f 	ldhio	ea,-27208(r14)
 684:	2f62696c 	andhi	ea,r5,35237
 688:	6362696c 	andhi	r13,r12,35237
 68c:	7274732f 	ldhio	r9,-11828(r14)
 690:	00676e69 	0x676e69
 694:	6975622f 	ldhio	r5,-10872(r13)
 698:	732f646c 	andhi	r12,r14,48529
 69c:	69756277 	ldwio	r5,-10871(r13)
 6a0:	532f646c 	andhi	r12,r10,48529
 6a4:	696e2f4a 	0x696e2f4a
 6a8:	6c746867 	ldbio	r17,-11871(r13)
 6ac:	33312f79 	0x33312f79
 6b0:	312f312e 	bgeu	r6,r4,ffffc378 <nasys_stack_top+0xff7fc378>
 6b4:	6c2f3236 	bltu	r13,r16,ffffc380 <nasys_stack_top+0xff7fc380>
 6b8:	772f3233 	initd	-17208(r14)
 6bc:	2f6b726f 	ldhio	ea,-21047(r5)
 6c0:	732f7069 	0x732f7069
 6c4:	2f63706f 	ldhio	ea,-29247(r5)
 6c8:	2f707061 	0x2f707061
 6cc:	2f756e67 	ldbio	ea,-10823(r5)
 6d0:	4c495542 	0x4c495542
 6d4:	6e672f44 	addi	bt,r13,-25411
 6d8:	2f373475 	stwio	fp,-9007(r5)
 6dc:	2f637273 	initd	-29239(r5)
 6e0:	6c77656e 	bgeu	r13,r17,ffffe479 <nasys_stack_top+0xff7fe479>
 6e4:	312d6269 	0x312d6269
 6e8:	2f36312e 	bgeu	r5,fp,ffffdfb0 <nasys_stack_top+0xff7fdfb0>
 6ec:	6c77656e 	bgeu	r13,r17,ffffe485 <nasys_stack_top+0xff7fe485>
 6f0:	6c2f6269 	0x6c2f6269
 6f4:	2f636269 	0x2f636269
 6f8:	6c636e69 	0x6c636e69
 6fc:	00656475 	stwio	at,-27247(zero)
 700:	6975622f 	ldhio	r5,-10872(r13)
 704:	732f646c 	andhi	r12,r14,48529
 708:	69756277 	ldwio	r5,-10871(r13)
 70c:	532f646c 	andhi	r12,r10,48529
 710:	696e2f4a 	0x696e2f4a
 714:	6c746867 	ldbio	r17,-11871(r13)
 718:	33312f79 	0x33312f79
 71c:	312f312e 	bgeu	r6,r4,ffffc3e4 <nasys_stack_top+0xff7fc3e4>
 720:	6c2f3236 	bltu	r13,r16,ffffc3ec <nasys_stack_top+0xff7fc3ec>
 724:	772f3233 	initd	-17208(r14)
 728:	2f6b726f 	ldhio	ea,-21047(r5)
 72c:	732f7069 	0x732f7069
 730:	2f63706f 	ldhio	ea,-29247(r5)
 734:	2f707061 	0x2f707061
 738:	2f756e67 	ldbio	ea,-10823(r5)
 73c:	4c495542 	0x4c495542
 740:	6e672f44 	addi	bt,r13,-25411
 744:	2f373475 	stwio	fp,-9007(r5)
 748:	36692d48 	cmpgei	bt,r6,-23371
 74c:	702d3638 	rdprs	zero,r14,-19240
 750:	696c2d63 	ldbuio	r5,-20299(r13)
 754:	2d78756e 	bgeu	r5,r21,ffffe92d <nasys_stack_top+0xff7fe92d>
 758:	2f756e67 	ldbio	ea,-10823(r5)
 75c:	2f62696c 	andhi	ea,r5,35237
 760:	2f636367 	ldbio	ea,-29299(r5)
 764:	736f696e 	bgeu	r14,r13,ffffc50d <nasys_stack_top+0xff7fc50d>
 768:	6c652d32 	custom	180,c18,r13,c17
 76c:	2e342f66 	beq	r5,et,ffffd82d <nasys_stack_top+0xff7fd82d>
 770:	2f332e37 	ldwio	fp,-13128(r5)
 774:	6c636e69 	0x6c636e69
 778:	00656475 	stwio	at,-27247(zero)
 77c:	6d656d00 	call	6d656d0 <nasys_stack_top+0x65656d0>
 780:	2e746573 	initd	-11883(r5)
 784:	00010063 	ldbuio	zero,1025(zero)
 788:	72747300 	call	7274730 <nasys_stack_top+0x6a74730>
 78c:	2e676e69 	0x2e676e69
 790:	00020068 	cmpgeui	zero,zero,2049
 794:	64747300 	call	6474730 <nasys_stack_top+0x5c74730>
 798:	2e666564 	muli	bt,r5,-26219
 79c:	00030068 	cmpgeui	zero,zero,3073
 7a0:	05000000 	call	500000 <_gp+0x4f77f0>
 7a4:	0000ec02 	0xec02
 7a8:	012e0300 	call	12e030 <_gp+0x125820>
 7ac:	03011203 	ldbu	r12,1096(zero)
 7b0:	0f034a6e 	bgeu	at,fp,14dd <_nasys_data_source_end+0xcb5>
 7b4:	02004d4a 	0x2004d4a
 7b8:	4a060104 	addi	r8,r9,6148
 7bc:	82090306 	br	2bcc <_nasys_data_source_end+0x23a4>
 7c0:	034a0a03 	ldbu	r13,10280(zero)
 7c4:	034b8276 	bltu	zero,r13,35d1 <_nasys_data_source_end+0x2da9>
 7c8:	4b848209 	0x4b848209
 7cc:	044b4b4b 	ldhu	r17,11565(zero)
 7d0:	4a400302 	0x4a400302
 7d4:	3a030104 	addi	r8,r7,3076
 7d8:	0002044a 	0x2044a
 7dc:	03010402 	0x3010402
 7e0:	01044a46 	br	190d <_nasys_data_source_end+0x10e5>
 7e4:	01040200 	call	104020 <_gp+0xfb810>
 7e8:	ba00c303 	ldbu	r8,780(r23)
 7ec:	02000204 	movi	r8,8
 7f0:	bd030104 	addi	r20,r23,3076
 7f4:	01044a7f 	0x1044a7f
 7f8:	01040200 	call	104020 <_gp+0xfb810>
 7fc:	ba00c303 	ldbu	r8,780(r23)
 800:	034a7703 	ldbu	r13,10716(zero)
 804:	4b4c8209 	0x4b4c8209
 808:	02044849 	0x2044849
 80c:	4a7fbd03 	ldbu	r9,-268(r9)
 810:	c5030104 	addi	r20,et,3076
 814:	00740800 	call	74080 <_gp+0x6b870>
 818:	51010402 	0x51010402
 81c:	b4030204 	addi	r16,r22,3080
 820:	01044a7f 	0x1044a7f
 824:	4a00ce03 	ldbu	r8,824(r9)
 828:	54035180 	call	5403518 <nasys_stack_top+0x4c03518>
 82c:	4a25034a 	0x4a25034a
 830:	02825b03 	ldbu	r10,2412(zero)
 834:	0101000c 	andi	r4,zero,1024
 838:	00000260 	cmpeqi	zero,zero,9
 83c:	01e90002 	0x1e90002
 840:	01010000 	call	101000 <_gp+0xf87f0>
 844:	000d0efb 	flushd	13371(zero)
 848:	01010101 	jmpi	101010 <_gp+0xf8800>
 84c:	01000000 	call	100000 <_gp+0xf77f0>
 850:	2e010000 	call	2e01000 <nasys_stack_top+0x2601000>
 854:	2e2e2f2e 	bgeu	r5,et,ffffc114 <nasys_stack_top+0xff7fc114>
 858:	2f2e2e2f 	ldhio	fp,-18248(r5)
 85c:	2e2f2e2e 	bgeu	r5,et,ffffc518 <nasys_stack_top+0xff7fc518>
 860:	72732f2e 	bgeu	r14,r9,ffffd520 <nasys_stack_top+0xff7fd520>
 864:	656e2f63 	ldbuio	r21,-18243(r12)
 868:	62696c77 	ldwio	r9,-23119(r12)
 86c:	312e312d 	sthio	r4,-18236(r6)
 870:	656e2f36 	bltu	r12,r21,ffffc130 <nasys_stack_top+0xff7fc130>
 874:	62696c77 	ldwio	r9,-23119(r12)
 878:	62696c2f 	ldhio	r9,-23120(r12)
 87c:	74732f63 	ldbuio	r17,-13123(r14)
 880:	62696c64 	muli	r9,r12,-23119
 884:	75622f00 	call	75622f0 <nasys_stack_top+0x6d622f0>
 888:	2f646c69 	0x2f646c69
 88c:	75627773 	initd	-30243(r14)
 890:	2f646c69 	0x2f646c69
 894:	6e2f4a53 	initda	-17111(r13)
 898:	74686769 	0x74686769
 89c:	312f796c 	andhi	r4,r6,48613
 8a0:	2f312e33 	initd	-15176(r5)
 8a4:	2f323631 	0x2f323631
 8a8:	2f32336c 	andhi	fp,r5,51405
 8ac:	6b726f77 	ldwio	r13,-13891(r13)
 8b0:	2f70692f 	ldhio	ea,-15964(r5)
 8b4:	63706f73 	initd	-15939(r12)
 8b8:	7070612f 	ldhio	at,-15996(r14)
 8bc:	756e672f 	ldhio	r21,-18020(r14)
 8c0:	4955422f 	ldhio	r5,21768(r9)
 8c4:	672f444c 	andi	fp,r12,48401
 8c8:	3734756e 	bgeu	r6,fp,ffffdaa1 <nasys_stack_top+0xff7fdaa1>
 8cc:	6372732f 	ldhio	r13,-13876(r12)
 8d0:	77656e2f 	ldhio	ea,-27208(r14)
 8d4:	2d62696c 	andhi	r21,r5,35237
 8d8:	36312e31 	0x36312e31
 8dc:	77656e2f 	ldhio	ea,-27208(r14)
 8e0:	2f62696c 	andhi	ea,r5,35237
 8e4:	6362696c 	andhi	r13,r12,35237
 8e8:	636e692f 	ldhio	r13,-18012(r12)
 8ec:	6564756c 	andhi	r21,r12,37333
 8f0:	7379732f 	ldhio	r13,-6708(r14)
 8f4:	75622f00 	call	75622f0 <nasys_stack_top+0x6d622f0>
 8f8:	2f646c69 	0x2f646c69
 8fc:	75627773 	initd	-30243(r14)
 900:	2f646c69 	0x2f646c69
 904:	6e2f4a53 	initda	-17111(r13)
 908:	74686769 	0x74686769
 90c:	312f796c 	andhi	r4,r6,48613
 910:	2f312e33 	initd	-15176(r5)
 914:	2f323631 	0x2f323631
 918:	2f32336c 	andhi	fp,r5,51405
 91c:	6b726f77 	ldwio	r13,-13891(r13)
 920:	2f70692f 	ldhio	ea,-15964(r5)
 924:	63706f73 	initd	-15939(r12)
 928:	7070612f 	ldhio	at,-15996(r14)
 92c:	756e672f 	ldhio	r21,-18020(r14)
 930:	4955422f 	ldhio	r5,21768(r9)
 934:	672f444c 	andi	fp,r12,48401
 938:	3734756e 	bgeu	r6,fp,ffffdb11 <nasys_stack_top+0xff7fdb11>
 93c:	692d482f 	ldhio	r4,-19168(r13)
 940:	2d363836 	bltu	r5,r20,ffffe224 <nasys_stack_top+0xff7fe224>
 944:	6c2d6370 	cmpltui	r16,r13,46477
 948:	78756e69 	0x78756e69
 94c:	756e672d 	sthio	r21,-18020(r14)
 950:	62696c2f 	ldhio	r9,-23120(r12)
 954:	6363672f 	ldhio	r13,-29284(r12)
 958:	6f696e2f 	ldhio	ea,-23112(r13)
 95c:	652d3273 	initd	-19255(r12)
 960:	342f666c 	andhi	r16,r6,48537
 964:	332e372e 	bgeu	r6,r12,ffffc244 <nasys_stack_top+0xff7fc244>
 968:	636e692f 	ldhio	r13,-18012(r12)
 96c:	6564756c 	andhi	r21,r12,37333
 970:	75622f00 	call	75622f0 <nasys_stack_top+0x6d622f0>
 974:	2f646c69 	0x2f646c69
 978:	75627773 	initd	-30243(r14)
 97c:	2f646c69 	0x2f646c69
 980:	6e2f4a53 	initda	-17111(r13)
 984:	74686769 	0x74686769
 988:	312f796c 	andhi	r4,r6,48613
 98c:	2f312e33 	initd	-15176(r5)
 990:	2f323631 	0x2f323631
 994:	2f32336c 	andhi	fp,r5,51405
 998:	6b726f77 	ldwio	r13,-13891(r13)
 99c:	2f70692f 	ldhio	ea,-15964(r5)
 9a0:	63706f73 	initd	-15939(r12)
 9a4:	7070612f 	ldhio	at,-15996(r14)
 9a8:	756e672f 	ldhio	r21,-18020(r14)
 9ac:	4955422f 	ldhio	r5,21768(r9)
 9b0:	672f444c 	andi	fp,r12,48401
 9b4:	3734756e 	bgeu	r6,fp,ffffdb8d <nasys_stack_top+0xff7fdb8d>
 9b8:	6372732f 	ldhio	r13,-13876(r12)
 9bc:	77656e2f 	ldhio	ea,-27208(r14)
 9c0:	2d62696c 	andhi	r21,r5,35237
 9c4:	36312e31 	0x36312e31
 9c8:	77656e2f 	ldhio	ea,-27208(r14)
 9cc:	2f62696c 	andhi	ea,r5,35237
 9d0:	6362696c 	andhi	r13,r12,35237
 9d4:	636e692f 	ldhio	r13,-18012(r12)
 9d8:	6564756c 	andhi	r21,r12,37333
 9dc:	5f5f0000 	call	5f5f000 <nasys_stack_top+0x575f000>
 9e0:	6c6c6163 	ldbuio	r17,-20091(r13)
 9e4:	6574615f 	ldl	r21,-11899(r12)
 9e8:	2e746978 	rdprs	bt,r5,-11867
 9ec:	00010063 	ldbuio	zero,1025(zero)
 9f0:	636f6c00 	call	636f6c0 <nasys_stack_top+0x5b6f6c0>
 9f4:	00682e6b 	ldhuio	at,-24391(zero)
 9f8:	5f000002 	0x5f000002
 9fc:	65707974 	orhi	r21,r12,49637
 a00:	00682e73 	initd	-24391(zero)
 a04:	73000002 	0x73000002
 a08:	65646474 	orhi	r21,r12,37265
 a0c:	00682e66 	beq	zero,at,ffffaac9 <nasys_stack_top+0xff7faac9>
 a10:	72000003 	ldbu	r8,0(r14)
 a14:	746e6565 	stbio	r17,-18027(r14)
 a18:	0200682e 	bgeu	zero,r8,bbc <_nasys_data_source_end+0x394>
 a1c:	74730000 	call	7473000 <nasys_stack_top+0x6c73000>
 a20:	62696c64 	muli	r9,r12,-23119
 a24:	0400682e 	bgeu	zero,r16,bc8 <_nasys_data_source_end+0x3a0>
 a28:	00000000 	call	0 <nasys_data_mem>
 a2c:	01c80205 	stb	r7,8200(zero)
 a30:	3a030000 	call	3a03000 <nasys_stack_top+0x3203000>
 a34:	12400201 	jmpi	1240020 <nasys_stack_top+0xa40020>
 a38:	03ba1303 	ldbu	r14,-6068(zero)
 a3c:	494b4a77 	ldwio	r5,11561(r9)
 a40:	6b03514c 	andi	r12,r13,3397
 a44:	081c03ba 	0x81c03ba
 a48:	040200e4 	muli	r16,zero,2051
 a4c:	4a640301 	jmpi	4a64030 <nasys_stack_top+0x4264030>
 a50:	01040200 	call	104020 <_gp+0xfb810>
 a54:	03821c03 	ldbu	r14,2160(zero)
 a58:	27038279 	0x27038279
 a5c:	ba1603f2 	custom	15,c11,c23,c8
 a60:	30025003 	ldbu	zero,2368(r6)
 a64:	854b4901 	jmpi	854b490 <nasys_stack_top+0x7d4b490>
 a68:	4a71034d 	sth	r9,-15347(r9)
 a6c:	47821503 	ldbu	ba,2132(r8)
 a70:	c1bb844d 	sth	r6,-4591(et)
 a74:	01040200 	call	104020 <_gp+0xfb810>
 a78:	03068206 	br	2484 <_nasys_data_source_end+0x1c5c>
 a7c:	7403ba77 	ldwio	r16,3817(r14)
 a80:	82100382 	0x82100382
 a84:	00ba0e03 	ldbu	r2,-6088(zero)
 a88:	06010402 	0x6010402
 a8c:	458a0682 	0x458a0682
 a90:	4bbe4b4f 	ldh	r14,-1747(r9)
 a94:	02827203 	ldbu	r10,2504(zero)
 a98:	01010008 	cmpgei	r4,zero,1024
 a9c:	00000069 	0x69
 aa0:	004e0002 	0x4e0002
 aa4:	01010000 	call	101000 <_gp+0xf87f0>
 aa8:	000d0efb 	flushd	13371(zero)
 aac:	01010101 	jmpi	101010 <_gp+0xf8800>
 ab0:	01000000 	call	100000 <_gp+0xf77f0>
 ab4:	2e010000 	call	2e01000 <nasys_stack_top+0x2601000>
 ab8:	2e2e2f2e 	bgeu	r5,et,ffffc378 <nasys_stack_top+0xff7fc378>
 abc:	2f2e2e2f 	ldhio	fp,-18248(r5)
 ac0:	732f2e2e 	bgeu	r14,r12,ffffc77c <nasys_stack_top+0xff7fc77c>
 ac4:	6e2f6372 	custom	141,r23,r13,c24
 ac8:	696c7765 	stbio	r5,-20003(r13)
 acc:	2e312d62 	0x2e312d62
 ad0:	6c2f3631 	0x6c2f3631
 ad4:	6c676269 	0x6c676269
 ad8:	2f73736f 	ldhio	ea,-12851(r5)
 adc:	736f696e 	bgeu	r14,r13,ffffc885 <nasys_stack_top+0xff7fc885>
 ae0:	6e000032 	custom	0,c0,c13,c24
 ae4:	7379736f 	ldhio	r13,-6707(r14)
 ae8:	6978655f 	ldl	r5,-7787(r13)
 aec:	00632e74 	movhi	at,36025
 af0:	00000001 	jmpi	0 <nasys_data_mem>
 af4:	68020500 	call	6802050 <nasys_stack_top+0x6002050>
 af8:	03000003 	ldbu	r12,0(zero)
 afc:	014f011e 	bne	zero,r5,4704 <_nasys_data_source_end+0x3edc>
 b00:	884d4bba 	0x884d4bba
 b04:	01001002 	0x1001002
 b08:	Address 0x00000b08 is out of bounds.


Disassembly of section .debug_frame:

00000000 <.debug_frame>:
   0:	0000000c 	andi	zero,zero,0
   4:	ffffffff 	0xffffffff
   8:	7c010001 	jmpi	7c01000 <nasys_stack_top+0x7401000>
   c:	001b0c1f 	ldl	zero,27696(zero)
  10:	00000018 	cmpnei	zero,zero,0
  14:	00000000 	call	0 <nasys_data_mem>
  18:	00000398 	cmpnei	zero,zero,14
  1c:	00000054 	movui	zero,1
  20:	48180e44 	addi	zero,r9,24633
  24:	029c019f 	ldl	r10,28678(zero)
  28:	081c0c44 	addi	zero,at,28721
  2c:	00000018 	cmpnei	zero,zero,0
.text
.global sumthree
sumthree:

addi sp, sp, -24;
  30:	00000000 	call	0 <nasys_data_mem>

stw ra, 20(sp);
  34:	000003ec 	andhi	zero,zero,15
stw fp, 16(sp);
  38:	00000030 	cmpltui	zero,zero,0
addi fp, fp, -24;
  3c:	440c0e44 	addi	r16,r8,12345
stw r4, 12(sp);
  40:	0c44019c 	xori	r17,at,4102
stw r5, 8(sp);
  44:	0000041c 	xori	zero,zero,16
stw r6, 4(sp);
  48:	0000000c 	andi	zero,zero,0


call sumtwo
  4c:	ffffffff 	0xffffffff

stw r2, 0(sp);
  50:	7c010001 	jmpi	7c01000 <nasys_stack_top+0x7401000>
stw r4, 0(sp);
  54:	001b0c1f 	ldl	zero,27696(zero)
stw r5, 4(sp);
  58:	0000000c 	andi	zero,zero,0

call sumtwo
  5c:	00000048 	cmpgei	zero,zero,1

stw r2, 0(sp);
  60:	0000006c 	andhi	zero,zero,1

ldw ra, 20(sp);
  64:	00000004 	movi	zero,0

ret
  68:	00000014 	movui	zero,0
  6c:	00000048 	cmpgei	zero,zero,1
  70:	00000070 	cmpltui	zero,zero,1
  74:	00000040 	call	4 <nasys_data_mem+0x4>
  78:	4c040e54 	ori	r16,r9,4153
  7c:	0000019f 	ldl	zero,6(zero)
  80:	0000000c 	andi	zero,zero,0
  84:	ffffffff 	0xffffffff
  88:	7c010001 	jmpi	7c01000 <nasys_stack_top+0x7401000>
  8c:	001b0c1f 	ldl	zero,27696(zero)
  90:	0000000c 	andi	zero,zero,0
  94:	00000080 	call	8 <nasys_data_mem+0x8>
  98:	000000b0 	cmpltui	zero,zero,2
  9c:	00000004 	movi	zero,0
  a0:	0000000c 	andi	zero,zero,0
  a4:	ffffffff 	0xffffffff
  a8:	7c010001 	jmpi	7c01000 <nasys_stack_top+0x7401000>
  ac:	001b0c1f 	ldl	zero,27696(zero)
  b0:	00000014 	movui	zero,0
  b4:	000000a0 	cmpeqi	zero,zero,2
  b8:	000000b4 	movhi	zero,2
  bc:	00000038 	rdprs	zero,zero,0
  c0:	4c080e44 	addi	r16,r9,8249
  c4:	019f0290 	cmplti	r6,zero,31754
  c8:	0000000c 	andi	zero,zero,0
  cc:	ffffffff 	0xffffffff
  d0:	7c010001 	jmpi	7c01000 <nasys_stack_top+0x7401000>
  d4:	001b0c1f 	ldl	zero,27696(zero)
  d8:	0000000c 	andi	zero,zero,0
  dc:	000000c8 	cmpgei	zero,zero,3
  e0:	000000ec 	andhi	zero,zero,3
  e4:	000000dc 	xori	zero,zero,3
  e8:	0000000c 	andi	zero,zero,0
  ec:	ffffffff 	0xffffffff
  f0:	7c010001 	jmpi	7c01000 <nasys_stack_top+0x7401000>
  f4:	001b0c1f 	ldl	zero,27696(zero)
  f8:	00000024 	muli	zero,zero,0
  fc:	000000e8 	cmpgeui	zero,zero,3
 100:	000001c8 	cmpgei	zero,zero,7
 104:	000001a0 	cmpeqi	zero,zero,6
 108:	70340e50 	cmplti	zero,r14,-12231
 10c:	0595029c 	xori	r22,zero,21514
 110:	0397019f 	ldl	r14,23558(zero)
 114:	06940496 	blt	zero,gp,512a <_nasys_data_source_end+0x4902>
 118:	08920793 	initda	18462(at)
 11c:	0a900991 	0xa900991
 120:	0000000c 	andi	zero,zero,0
 124:	ffffffff 	0xffffffff
 128:	7c010001 	jmpi	7c01000 <nasys_stack_top+0x7401000>
 12c:	001b0c1f 	ldl	zero,27696(zero)
 130:	0000000c 	andi	zero,zero,0
 134:	00000120 	cmpeqi	zero,zero,4
 138:	00000368 	cmpgeui	zero,zero,13
 13c:	00000004 	movi	zero,0
 140:	00000014 	movui	zero,0
 144:	00000120 	cmpeqi	zero,zero,4
 148:	0000036c 	andhi	zero,zero,13
 14c:	0000002c 	andhi	zero,zero,0
 150:	48080e44 	addi	zero,r9,8249
 154:	019f0290 	cmplti	r6,zero,31754

Disassembly of section .debug_str:

00000000 <.debug_str>:
   0:	746d7573 	initd	-18987(r14)
   4:	47006f77 	ldwio	fp,445(r8)
   8:	4320554e 	bge	r8,r12,ffff8161 <nasys_stack_top+0xff7f8161>
   c:	372e3420 	cmpeqi	fp,r6,-18224
  10:	4300332e 	bgeu	r8,r12,e0 <exit+0x2c>
  14:	73552f3a 	div	r10,r14,r13
  18:	2f737265 	stbio	ea,-12855(r5)
  1c:	6e61696c 	andhi	bt,r13,34213
  20:	442f656e 	bgeu	r8,r16,ffffbdb9 <nasys_stack_top+0xff7fbdb9>
  24:	746b7365 	stbio	r17,-21043(r14)
  28:	612f706f 	ldhio	r4,-16959(r12)
  2c:	2f327133 	initd	-13884(r5)
.text
.global sumthree
sumthree:

addi sp, sp, -24;
  30:	6e69616d 	sthio	bt,-23163(r13)

stw ra, 20(sp);
  34:	6d00632e 	bgeu	r13,r20,1c4 <memset+0xd8>
stw fp, 16(sp);
  38:	006e6961 	0x6e6961
addi fp, fp, -24;
  3c:	72657a5f 	ldl	r9,-27159(r14)
stw r4, 12(sp);
  40:	73625f6f 	ldhio	r13,-30339(r14)
stw r5, 8(sp);
  44:	5f5f0073 	initd	31745(r11)
stw r6, 4(sp);
  48:	72617473 	initd	-31279(r14)


call sumtwo
  4c:	00325f74 	movhi	zero,51581

stw r2, 0(sp);
  50:	61665f5f 	ldl	r5,-26243(r12)
stw r4, 0(sp);
  54:	695f656b 	ldhuio	r5,32149(r13)
stw r5, 4(sp);
  58:	0074696e 	bgeu	zero,at,ffffd201 <nasys_stack_top+0xff7fd201>

call sumtwo
  5c:	73625f5f 	ldl	r13,-30339(r14)

stw r2, 0(sp);
  60:	74735f73 	initd	-12931(r14)

ldw ra, 20(sp);
  64:	00747261 	0x747261

ret
  68:	6975622f 	ldhio	r5,-10872(r13)
  6c:	732f646c 	andhi	r12,r14,48529
  70:	69756277 	ldwio	r5,-10871(r13)
  74:	532f646c 	andhi	r12,r10,48529
  78:	696e2f4a 	0x696e2f4a
  7c:	6c746867 	ldbio	r17,-11871(r13)
  80:	33312f79 	0x33312f79
  84:	312f312e 	bgeu	r6,r4,ffffbd4c <nasys_stack_top+0xff7fbd4c>
  88:	6c2f3236 	bltu	r13,r16,ffffbd54 <nasys_stack_top+0xff7fbd54>
  8c:	772f3233 	initd	-17208(r14)
  90:	2f6b726f 	ldhio	ea,-21047(r5)
  94:	732f7069 	0x732f7069
  98:	2f63706f 	ldhio	ea,-29247(r5)
  9c:	2f707061 	0x2f707061
  a0:	2f756e67 	ldbio	ea,-10823(r5)
  a4:	4c495542 	0x4c495542
  a8:	6e672f44 	addi	bt,r13,-25411
  ac:	2f373475 	stwio	fp,-9007(r5)
  b0:	6c697562 	0x6c697562
  b4:	2d302d64 	muli	r20,r5,-16203
  b8:	6c77656e 	bgeu	r13,r17,ffffde51 <nasys_stack_top+0xff7fde51>
  bc:	735f6269 	0x735f6269
  c0:	6c6c616d 	sthio	r17,-20091(r13)
  c4:	6f696e2e 	bgeu	r13,ea,ffffa680 <nasys_stack_top+0xff7fa680>
  c8:	652d3273 	initd	-19255(r12)
  cc:	692e666c 	andhi	r4,r13,47513
  d0:	2d363836 	bltu	r5,r20,ffffd9b4 <nasys_stack_top+0xff7fd9b4>
  d4:	2d343677 	ldwio	r20,-12071(r5)
  d8:	676e696d 	sthio	ea,-18011(r12)
  dc:	2f323377 	ldwio	fp,-14131(r5)
  e0:	736f696e 	bgeu	r14,r13,ffffbe89 <nasys_stack_top+0xff7fbe89>
  e4:	6c652d32 	custom	180,c18,r13,c17
  e8:	696c2f66 	beq	r13,r5,ffffb1a9 <nasys_stack_top+0xff7fb1a9>
  ec:	6f6c6762 	0x6f6c6762
  f0:	6e2f7373 	initd	-16947(r13)
  f4:	32736f69 	0x32736f69
  f8:	2f2e2e00 	call	2f2e2e0 <nasys_stack_top+0x272e2e0>
  fc:	2e2f2e2e 	bgeu	r5,et,ffffbdb8 <nasys_stack_top+0xff7fbdb8>
 100:	2e2e2f2e 	bgeu	r5,et,ffffb9c0 <nasys_stack_top+0xff7fb9c0>
 104:	6372732f 	ldhio	r13,-13876(r12)
 108:	77656e2f 	ldhio	ea,-27208(r14)
 10c:	2d62696c 	andhi	r21,r5,35237
 110:	36312e31 	0x36312e31
 114:	62696c2f 	ldhio	r9,-23120(r12)
 118:	736f6c67 	ldbio	r13,-16975(r14)
 11c:	696e2f73 	initd	-18243(r13)
 120:	2f32736f 	ldhio	fp,-13875(r5)
 124:	79736f6e 	bgeu	r15,r5,ffffcee5 <nasys_stack_top+0xff7fcee5>
 128:	72635f73 	initd	-29315(r14)
 12c:	632e3074 	orhi	r12,r12,47297
 130:	6e655f00 	call	6e655f0 <nasys_stack_top+0x66655f0>
 134:	6f6c0064 	muli	ea,r13,-20479
 138:	6c20676e 	bgeu	r13,r16,ffff82d9 <nasys_stack_top+0xff7f82d9>
 13c:	20676e6f 	ldhio	at,-25159(r4)
 140:	00746e69 	0x746e69
 144:	726f6873 	initd	-16991(r14)
 148:	6e752074 	orhi	bt,r13,54401
 14c:	6e676973 	initd	-25179(r13)
 150:	69206465 	stbio	r4,-32367(r13)
 154:	7300746e 	bgeu	r14,r12,329 <__call_exitprocs+0x161>
 158:	5f657a69 	0x5f657a69
 15c:	6f6c0074 	orhi	ea,r13,45057
 160:	6c20676e 	bgeu	r13,r16,ffff8301 <nasys_stack_top+0xff7f8301>
 164:	20676e6f 	ldhio	at,-25159(r4)
 168:	69736e75 	stwio	r5,-12871(r13)
 16c:	64656e67 	ldbio	r17,-27207(r12)
 170:	746e6920 	cmpeqi	r17,r14,-18012
 174:	736e7500 	call	736e750 <nasys_stack_top+0x6b6e750>
 178:	656e6769 	0x656e6769
 17c:	68632064 	muli	at,r13,-29567
 180:	73007261 	0x73007261
 184:	74726f68 	cmpgeui	r17,r14,51645
 188:	746e6920 	cmpeqi	r17,r14,-18012
 18c:	6d656d00 	call	6d656d0 <nasys_stack_top+0x65656d0>
 190:	00746573 	initd	-11883(zero)
 194:	657a6973 	initd	-5723(r12)
 198:	65707974 	orhi	r21,r12,49637
 19c:	2f2e2e00 	call	2f2e2e0 <nasys_stack_top+0x272e2e0>
 1a0:	2e2f2e2e 	bgeu	r5,et,ffffbe5c <nasys_stack_top+0xff7fbe5c>
 1a4:	2e2e2f2e 	bgeu	r5,et,ffffba64 <nasys_stack_top+0xff7fba64>
 1a8:	6372732f 	ldhio	r13,-13876(r12)
 1ac:	77656e2f 	ldhio	ea,-27208(r14)
 1b0:	2d62696c 	andhi	r21,r5,35237
 1b4:	36312e31 	0x36312e31
 1b8:	62696c2f 	ldhio	r9,-23120(r12)
 1bc:	736f6c67 	ldbio	r13,-16975(r14)
 1c0:	696e2f73 	initd	-18243(r13)
 1c4:	2f32736f 	ldhio	fp,-13875(r5)
 1c8:	72657a5f 	ldl	r9,-27159(r14)
 1cc:	73625f6f 	ldhio	r13,-30339(r14)
 1d0:	00632e73 	initd	-29511(zero)
 1d4:	6f73645f 	ldl	ea,-12911(r13)
 1d8:	6e61685f 	ldl	bt,-31327(r13)
 1dc:	00656c64 	muli	at,zero,-27215
 1e0:	7a69735f 	ldl	r9,-23091(r15)
 1e4:	725f0065 	stbio	r9,31745(r14)
 1e8:	34646e61 	0x34646e61
 1ec:	655f0038 	rdprs	r21,r12,31744
 1f0:	6772656d 	sthio	ea,-13931(r12)
 1f4:	79636e65 	stbio	r5,-29255(r15)
 1f8:	63775f00 	call	63775f0 <nasys_stack_top+0x5b775f0>
 1fc:	6d6f7472 	custom	209,r23,r13,c21
 200:	74735f62 	0x74735f62
 204:	00657461 	0x657461
 208:	7363775f 	ldl	r13,-29219(r14)
 20c:	6d6f7472 	custom	209,r23,r13,c21
 210:	735f7362 	0x735f7362
 214:	65746174 	orhi	r21,r12,53637
 218:	626c5f00 	call	626c5f0 <nasys_stack_top+0x5a6c5f0>
 21c:	7a697366 	beq	r15,r9,ffffa7ed <nasys_stack_top+0xff7fa7ed>
 220:	6d5f0065 	stbio	r21,31745(r13)
 224:	6f747262 	0x6f747262
 228:	735f6377 	ldwio	r13,32141(r14)
 22c:	65746174 	orhi	r21,r12,53637
 230:	63775f00 	call	63775f0 <nasys_stack_top+0x5b775f0>
 234:	626d6f74 	orhi	r9,r12,46525
 238:	6174735f 	ldl	r5,-11827(r12)
 23c:	5f006574 	orhi	fp,r11,405
 240:	5f6d745f 	ldl	ea,-18991(r11)
 244:	00636573 	initd	-29291(zero)
 248:	6978655f 	ldl	r5,-7787(r13)
 24c:	755f0074 	orhi	r21,r14,31745
 250:	00667562 	0x667562
 254:	7361625f 	ldl	r13,-31351(r14)
 258:	5f5f0065 	stbio	ea,31745(r11)
 25c:	685f6d74 	orhi	at,r13,32181
 260:	0072756f 	ldhio	at,-13867(zero)
 264:	66735f5f 	ldl	bt,-12931(r12)
 268:	6e6f5f00 	call	6e6f5f0 <nasys_stack_top+0x666f5f0>
 26c:	6978655f 	ldl	r5,-7787(r13)
 270:	72615f74 	orhi	r9,r14,34173
 274:	5f007367 	ldbio	fp,461(r11)
 278:	6b6f6f63 	ldbuio	r13,-16963(r13)
 27c:	5f006569 	0x5f006569
 280:	6c67735f 	ldl	r17,-25139(r13)
 284:	5f006575 	stwio	fp,405(r11)
 288:	67616c66 	beq	r12,ea,ffff883d <nasys_stack_top+0xff7f883d>
 28c:	695f0073 	initd	31745(r13)
 290:	78635f73 	initd	-29315(r15)
 294:	735f0061 	0x735f0061
 298:	6e696474 	orhi	bt,r13,42385
 29c:	6c625f00 	call	6c625f0 <nasys_stack_top+0x64625f0>
 2a0:	7a69736b 	ldhuio	r9,-23091(r15)
 2a4:	635f0065 	stbio	r13,31745(r12)
 2a8:	75627476 	bltu	r14,r21,ffff8c7d <nasys_stack_top+0xff7f8c7d>
 2ac:	6f5f0066 	beq	r13,ea,7eb1 <_nasys_data_source_end+0x7689>
 2b0:	65736666 	beq	r12,r21,ffffd04d <nasys_stack_top+0xff7fd04d>
 2b4:	6d5f0074 	orhi	r21,r13,31745
 2b8:	74727362 	0x74727362
 2bc:	7363776f 	ldhio	r13,-29219(r14)
 2c0:	6174735f 	ldl	r5,-11827(r12)
 2c4:	5f006574 	orhi	fp,r11,405
 2c8:	6c72626d 	sthio	r17,-13943(r13)
 2cc:	735f6e65 	stbio	r13,32185(r14)
 2d0:	65746174 	orhi	r21,r12,53637
 2d4:	6e665f00 	call	6e665f0 <nasys_stack_top+0x66665f0>
 2d8:	73677261 	0x73677261
 2dc:	6e665f00 	call	6e665f0 <nasys_stack_top+0x66665f0>
 2e0:	735f0073 	initd	31745(r14)
 2e4:	006e6769 	0x6e6769
 2e8:	6f6c665f 	ldl	ea,-20071(r13)
 2ec:	745f6b63 	ldbuio	r17,32173(r14)
 2f0:	74735f00 	call	74735f0 <nasys_stack_top+0x6c735f0>
 2f4:	72726564 	muli	r9,r14,-13931
 2f8:	69425f00 	call	69425f0 <nasys_stack_top+0x61425f0>
 2fc:	746e6967 	ldbio	r17,-18011(r14)
 300:	61675f00 	call	61675f0 <nasys_stack_top+0x59675f0>
 304:	5f616d6d 	sthio	ea,-31307(r11)
 308:	6e676973 	initd	-25179(r13)
 30c:	006d6167 	ldbio	at,-19067(zero)
 310:	6165725f 	ldl	r5,-27191(r12)
 314:	725f0064 	muli	r9,r14,31745
 318:	6c757365 	stbio	r17,-10803(r13)
 31c:	006b5f74 	movhi	at,44413
 320:	6d745f5f 	ldl	r21,-11907(r13)
 324:	775f5f00 	call	775f5f0 <nasys_stack_top+0x6f5f5f0>
 328:	00626863 	ldbuio	at,-30303(zero)
 32c:	6474735f 	ldl	r17,-11827(r12)
 330:	0074756f 	ldhio	at,-11819(zero)
 334:	7476635f 	ldl	r17,-9843(r14)
 338:	006e656c 	andhi	at,zero,47509
 33c:	6c69665f 	ldl	r17,-23143(r13)
 340:	6e5f0065 	stbio	bt,31745(r13)
 344:	73626f69 	0x73626f69
 348:	74615f00 	call	74615f0 <nasys_stack_top+0x6c615f0>
 34c:	74697865 	stbio	r17,-23071(r14)
 350:	735f0030 	cmpltui	r13,r14,31744
 354:	616e6769 	0x616e6769
 358:	75625f6c 	andhi	r21,r14,35197
 35c:	615f0066 	beq	r12,r5,7f61 <_nasys_data_source_end+0x7739>
 360:	69746373 	initd	-11891(r13)
 364:	625f656d 	sthio	r9,32149(r12)
 368:	5f006675 	stwio	fp,409(r11)
 36c:	75736572 	custom	149,bt,r14,c21
 370:	5f00746c 	andhi	fp,r11,465
 374:	6863775f 	ldl	at,-29219(r13)
 378:	6e697700 	call	6e69770 <nasys_stack_top+0x6669770>
 37c:	00745f74 	movhi	at,53629
 380:	6975622f 	ldhio	r5,-10872(r13)
 384:	732f646c 	andhi	r12,r14,48529
 388:	69756277 	ldwio	r5,-10871(r13)
 38c:	532f646c 	andhi	r12,r10,48529
 390:	696e2f4a 	0x696e2f4a
 394:	6c746867 	ldbio	r17,-11871(r13)
// declare the sumthree function
int sumthree(int a, int b, int c);

int main() {
 398:	33312f79 	0x33312f79
 39c:	312f312e 	bgeu	r6,r4,ffffc064 <nasys_stack_top+0xff7fc064>
 3a0:	6c2f3236 	bltu	r13,r16,ffffc06c <nasys_stack_top+0xff7fc06c>
 3a4:	772f3233 	initd	-17208(r14)
   int z;
   int a=2;
 3a8:	2f6b726f 	ldhio	ea,-21047(r5)
 3ac:	732f7069 	0x732f7069
   int b=3;
 3b0:	2f63706f 	ldhio	ea,-29247(r5)
 3b4:	2f707061 	0x2f707061
   int c=4;
 3b8:	2f756e67 	ldbio	ea,-10823(r5)
 3bc:	4c495542 	0x4c495542
   z = sumthree(a,b,c);
 3c0:	6e672f44 	addi	bt,r13,-25411
 3c4:	2f373475 	stwio	fp,-9007(r5)
 3c8:	6c697562 	0x6c697562
 3cc:	2d302d64 	muli	r20,r5,-16203
 3d0:	6c77656e 	bgeu	r13,r17,ffffe169 <nasys_stack_top+0xff7fe169>
   // if you run in a debugger, r2 should be 9 at this point
   
   return 0;
 3d4:	6e2e6269 	0x6e2e6269
}
 3d8:	32736f69 	0x32736f69
 3dc:	666c652d 	sthio	bt,-20076(r12)
 3e0:	3836692e 	bgeu	r7,zero,ffffdd88 <nasys_stack_top+0xff7fdd88>
 3e4:	36772d36 	bltu	r6,bt,ffffe09c <nasys_stack_top+0xff7fe09c>
 3e8:	696d2d34 	orhi	r5,r13,46260

int sumtwo(int a, int b) {
 3ec:	3377676e 	bgeu	r6,r13,ffffe18d <nasys_stack_top+0xff7fe18d>
 3f0:	696e2f32 	custom	188,c23,c13,c5
 3f4:	2d32736f 	ldhio	r20,-13875(r5)
 3f8:	2f666c65 	stbio	ea,-26191(r5)
 3fc:	6c77656e 	bgeu	r13,r17,ffffe195 <nasys_stack_top+0xff7fe195>
   return a+b;
 400:	6c2f6269 	0x6c2f6269
 404:	2f636269 	0x2f636269
 408:	6c647473 	initd	-28207(r13)
   
 40c:	5f006269 	0x5f006269
 410:	6b636f6c 	andhi	r13,r13,36285
 414:	756d5f00 	call	756d5f0 <nasys_stack_top+0x6d6d5f0>
 418:	5f00746c 	andhi	fp,r11,465
 41c:	74697277 	ldwio	r17,-23095(r14)
 420:	5f5f0065 	stbio	ea,31745(r11)
 424:	795f6d74 	orhi	r5,r15,32181
 428:	00726165 	stbio	at,-13947(zero)
 42c:	78656e5f 	ldl	at,-27207(r15)
 430:	5f006674 	orhi	fp,r11,409
 434:	5f6d745f 	ldl	ea,-18991(r11)
 438:	006e6f6d 	sthio	at,-17987(zero)
 43c:	6574615f 	ldl	r21,-11899(r12)
 440:	00746978 	rdprs	at,zero,-11867
 444:	64735f5f 	ldl	r17,-12931(r12)
 448:	6e696469 	0x6e696469
 44c:	5f007469 	0x5f007469
 450:	6c61635f 	ldl	r17,-31347(r13)
 454:	78655f6c 	andhi	at,r15,38269
 458:	72707469 	0x72707469
 45c:	0073636f 	ldhio	at,-12915(zero)
 460:	6572665f 	ldl	r21,-13927(r12)
 464:	73696c65 	stbio	r13,-23119(r14)
 468:	4c5f0074 	orhi	r17,r9,31745
 46c:	5f4b434f 	ldh	ea,11533(r11)
 470:	55434552 	0x55434552
 474:	56495352 	0x56495352
 478:	00545f45 	stb	at,20861(zero)
 47c:	77656e5f 	ldl	ea,-27207(r14)
 480:	745f5f00 	call	745f5f0 <nasys_stack_top+0x6c5f5f0>
 484:	64795f6d 	sthio	r17,-6787(r12)
 488:	5f007961 	0x5f007961
 48c:	7562735f 	ldl	r21,-30259(r14)
 490:	695f0066 	beq	r13,r5,8095 <_nasys_data_source_end+0x786d>
 494:	0073626f 	ldhio	at,-12919(zero)
 498:	49465f5f 	ldl	r5,6525(r9)
 49c:	5f00454c 	andi	fp,r11,277
 4a0:	7473626d 	sthio	r17,-12919(r14)
 4a4:	5f657461 	0x5f657461
 4a8:	5f5f0074 	orhi	ea,r11,31745
 4ac:	4c494673 	initd	9497(r9)
 4b0:	725f0045 	stb	r9,31745(r14)
 4b4:	5f646e61 	0x5f646e61
 4b8:	7478656e 	bgeu	r14,r17,ffffe651 <nasys_stack_top+0xff7fe651>
 4bc:	626d5f00 	call	626d5f0 <nasys_stack_top+0x5a6d5f0>
 4c0:	5f6e656c 	andhi	ea,r11,47509
 4c4:	74617473 	initd	-31279(r14)
 4c8:	695f0065 	stbio	r5,31745(r13)
 4cc:	5f00636e 	bgeu	r11,fp,65d <_nasys_data_destination+0x23d>
 4d0:	00646e69 	0x646e69
 4d4:	7275635f 	ldl	r9,-10867(r14)
 4d8:	746e6572 	custom	149,r23,c14,c17
 4dc:	636f6c5f 	ldl	r13,-16975(r12)
 4e0:	00656c61 	0x656c61
 4e4:	6c635f5f 	ldl	r17,-29315(r13)
 4e8:	756e6165 	stbio	r21,-18043(r14)
 4ec:	6d5f0070 	cmpltui	r21,r13,31745
 4f0:	64777861 	0x64777861
 4f4:	725f0073 	initd	31745(r14)
 4f8:	746e6565 	stbio	r17,-18027(r14)
 4fc:	65735f00 	call	65735f0 <nasys_stack_top+0x5d735f0>
 500:	5f006465 	stbio	fp,401(r11)
 504:	756f635f 	ldl	r21,-17011(r14)
 508:	5f00746e 	bgeu	r11,fp,6dd <_nasys_data_destination+0x2bd>
 50c:	6c61765f 	ldl	r17,-31271(r13)
 510:	5f006575 	stwio	fp,405(r11)
 514:	6b656573 	initd	-27243(r13)
 518:	70665f00 	call	70665f0 <nasys_stack_top+0x68665f0>
 51c:	745f736f 	ldhio	r17,32205(r14)
 520:	72655f00 	call	72655f0 <nasys_stack_top+0x6a655f0>
 524:	006f6e72 	custom	185,r23,zero,c1
 528:	2e2f2e2e 	bgeu	r5,et,ffffc1e4 <nasys_stack_top+0xff7fc1e4>
 52c:	2e2e2f2e 	bgeu	r5,et,ffffbdec <nasys_stack_top+0xff7fbdec>
 530:	2f2e2e2f 	ldhio	fp,-18248(r5)
 534:	732f2e2e 	bgeu	r14,r12,ffffc1f0 <nasys_stack_top+0xff7fc1f0>
 538:	6e2f6372 	custom	141,r23,r13,c24
 53c:	696c7765 	stbio	r5,-20003(r13)
 540:	2e312d62 	0x2e312d62
 544:	6e2f3631 	0x6e2f3631
 548:	696c7765 	stbio	r5,-20003(r13)
 54c:	696c2f62 	0x696c2f62
 550:	732f6362 	0x732f6362
 554:	696c6474 	orhi	r5,r13,45457
 558:	78652f62 	0x78652f62
 55c:	632e7469 	0x632e7469
 560:	745f5f00 	call	745f5f0 <nasys_stack_top+0x6c5f5f0>
 564:	696d5f6d 	sthio	r5,-19075(r13)
 568:	735f006e 	bgeu	r14,r13,816d <_nasys_data_source_end+0x7945>
 56c:	6f747274 	orhi	ea,r13,53705
 570:	616c5f6b 	ldhuio	r5,-20099(r12)
 574:	5f007473 	initd	465(r11)
 578:	79746e66 	beq	r15,r5,ffffd735 <nasys_stack_top+0xff7fd735>
 57c:	00736570 	cmpltui	at,zero,52629
 580:	6464615f 	ldl	r17,-28283(r12)
 584:	555f5f00 	call	555f5f0 <nasys_stack_top+0x4d5f5f0>
 588:	676e6f4c 	andi	ea,r12,47549
 58c:	65675f00 	call	65675f0 <nasys_stack_top+0x5d675f0>
 590:	74616474 	orhi	r17,r14,34193
 594:	72655f65 	stbio	r9,-27267(r14)
 598:	675f0072 	custom	1,c15,r12,c29
 59c:	61626f6c 	andhi	r5,r12,35261
 5a0:	6d695f6c 	andhi	r21,r13,42365
 5a4:	65727570 	cmpltui	r21,r12,51669
 5a8:	7274705f 	ldl	r9,-11839(r14)
 5ac:	75635f00 	call	75635f0 <nasys_stack_top+0x6d635f0>
 5b0:	6e657272 	custom	201,r18,r13,c25
 5b4:	61635f74 	orhi	r5,r12,36221
 5b8:	6f676574 	orhi	ea,r13,40341
 5bc:	5f007972 	custom	229,zero,c11,c28
 5c0:	73756e75 	stwio	r13,-10823(r14)
 5c4:	725f6465 	stbio	r9,32145(r14)
 5c8:	00646e61 	0x646e61
 5cc:	7364775f 	ldl	r13,-28195(r14)
 5d0:	745f5f00 	call	745f5f0 <nasys_stack_top+0x6c5f5f0>
 5d4:	64775f6d 	sthio	r17,-8835(r12)
 5d8:	5f007961 	0x5f007961
 5dc:	65756c67 	ldbio	r21,-10831(r12)
 5e0:	6d6e5f00 	call	6d6e5f0 <nasys_stack_top+0x656e5f0>
 5e4:	6f6c6c61 	0x6f6c6c61
 5e8:	6c5f0063 	ldbuio	r17,31745(r13)
 5ec:	5f613436 	bltu	r11,ea,ffff8ac0 <nasys_stack_top+0xff7f8ac0>
 5f0:	00667562 	0x667562
 5f4:	6769735f 	ldl	ea,-23091(r12)
 5f8:	6e75665f 	ldl	bt,-10855(r13)
 5fc:	6e5f0063 	ldbuio	bt,31745(r13)
 600:	00667562 	0x667562
 604:	756e755f 	ldl	r21,-17963(r14)
 608:	00646573 	initd	-28267(zero)
 60c:	6d745f5f 	ldl	r21,-11907(r13)
 610:	6473695f 	ldl	r17,-12891(r12)
 614:	5f007473 	initd	465(r11)
 618:	61636f6c 	andhi	r5,r12,36285
 61c:	6d69746c 	andhi	r21,r13,42449
 620:	75625f65 	stbio	r21,-30339(r14)
 624:	635f0066 	beq	r12,r13,8229 <_nasys_data_source_end+0x7a01>
 628:	65736f6c 	andhi	r21,r12,52669
 62c:	34725f00 	call	34725f0 <nasys_stack_top+0x2c725f0>
 630:	6d5f0038 	rdprs	r21,r13,31744
 634:	776f7462 	0x776f7462
 638:	74735f63 	ldbuio	r17,-12931(r14)
 63c:	00657461 	0x657461
 640:	7335705f 	ldl	r12,-10815(r14)
 644:	745f5f00 	call	745f5f0 <nasys_stack_top+0x6c5f5f0>
 648:	646d5f6d 	sthio	r17,-19075(r12)
 64c:	69007961 	0x69007961
 650:	7275706d 	sthio	r9,-10815(r14)
 654:	61645f65 	stbio	r5,-28291(r12)
 658:	2f006174 	orhi	fp,r5,389
 65c:	6c697562 	0x6c697562
 660:	77732f64 	muli	ea,r14,-13123
 664:	6c697562 	0x6c697562
 668:	4a532f64 	muli	r9,r9,19645
 66c:	67696e2f 	ldhio	ea,-23112(r12)
 670:	796c7468 	cmpgeui	r5,r15,45521
 674:	2e33312f 	ldhio	et,-13116(r5)
 678:	36312f31 	0x36312f31
 67c:	336c2f32 	custom	188,c22,c6,c13
 680:	6f772f32 	custom	188,c27,r13,c29
 684:	692f6b72 	custom	173,r23,r13,c4
 688:	6f732f70 	cmpltui	ea,r13,52413
 68c:	612f6370 	cmpltui	r4,r12,48525
 690:	672f7070 	cmpltui	fp,r12,48577
 694:	422f756e 	bgeu	r8,r8,ffffc46d <nasys_stack_top+0xff7fc46d>
 698:	444c4955 	stw	r17,12581(r8)
 69c:	756e672f 	ldhio	r21,-18020(r14)
 6a0:	622f3734 	orhi	r8,r12,48348
 6a4:	646c6975 	stwio	r17,-20059(r12)
 6a8:	6e2d302d 	sthio	et,-19264(r13)
 6ac:	696c7765 	stbio	r5,-20003(r13)
 6b0:	696e2e62 	0x696e2e62
 6b4:	2d32736f 	ldhio	r20,-13875(r5)
 6b8:	2e666c65 	stbio	bt,-26191(r5)
 6bc:	36383669 	0x36383669
 6c0:	3436772d 	sthio	r16,-9764(r6)
 6c4:	6e696d2d 	sthio	bt,-23116(r13)
 6c8:	32337767 	ldbio	r8,-12835(r6)
 6cc:	6f696e2f 	ldhio	ea,-23112(r13)
 6d0:	652d3273 	initd	-19255(r12)
 6d4:	6e2f666c 	andhi	et,r13,48537
 6d8:	696c7765 	stbio	r5,-20003(r13)
 6dc:	696c2f62 	0x696c2f62
 6e0:	722f6362 	0x722f6362
 6e4:	746e6565 	stbio	r17,-18027(r14)
 6e8:	2f2e2e00 	call	2f2e2e0 <nasys_stack_top+0x272e2e0>
 6ec:	2e2f2e2e 	bgeu	r5,et,ffffc3a8 <nasys_stack_top+0xff7fc3a8>
 6f0:	2e2e2f2e 	bgeu	r5,et,ffffbfb0 <nasys_stack_top+0xff7fbfb0>
 6f4:	2f2e2e2f 	ldhio	fp,-18248(r5)
 6f8:	2f637273 	initd	-29239(r5)
 6fc:	6c77656e 	bgeu	r13,r17,ffffe495 <nasys_stack_top+0xff7fe495>
 700:	312d6269 	0x312d6269
 704:	2f36312e 	bgeu	r5,fp,ffffdfcc <nasys_stack_top+0xff7fdfcc>
 708:	6c77656e 	bgeu	r13,r17,ffffe4a1 <nasys_stack_top+0xff7fe4a1>
 70c:	6c2f6269 	0x6c2f6269
 710:	2f636269 	0x2f636269
 714:	6e656572 	custom	149,r18,r13,c25
 718:	6d692f74 	orhi	r21,r13,42173
 71c:	65727570 	cmpltui	r21,r12,51669
 720:	6100632e 	bgeu	r12,r4,8b0 <_nasys_data_source_end+0x88>
 724:	6e67696c 	andhi	bt,r13,40357
 728:	615f6465 	stbio	r5,32145(r12)
 72c:	00726464 	muli	at,zero,-13935
 730:	6975622f 	ldhio	r5,-10872(r13)
 734:	732f646c 	andhi	r12,r14,48529
 738:	69756277 	ldwio	r5,-10871(r13)
 73c:	532f646c 	andhi	r12,r10,48529
 740:	696e2f4a 	0x696e2f4a
 744:	6c746867 	ldbio	r17,-11871(r13)
 748:	33312f79 	0x33312f79
 74c:	312f312e 	bgeu	r6,r4,ffffc414 <nasys_stack_top+0xff7fc414>
 750:	6c2f3236 	bltu	r13,r16,ffffc41c <nasys_stack_top+0xff7fc41c>
 754:	772f3233 	initd	-17208(r14)
 758:	2f6b726f 	ldhio	ea,-21047(r5)
 75c:	732f7069 	0x732f7069
 760:	2f63706f 	ldhio	ea,-29247(r5)
 764:	2f707061 	0x2f707061
 768:	2f756e67 	ldbio	ea,-10823(r5)
 76c:	4c495542 	0x4c495542
 770:	6e672f44 	addi	bt,r13,-25411
 774:	2f373475 	stwio	fp,-9007(r5)
 778:	6c697562 	0x6c697562
 77c:	2d302d64 	muli	r20,r5,-16203
 780:	6c77656e 	bgeu	r13,r17,ffffe519 <nasys_stack_top+0xff7fe519>
 784:	6e2e6269 	0x6e2e6269
 788:	32736f69 	0x32736f69
 78c:	666c652d 	sthio	bt,-20076(r12)
 790:	3836692e 	bgeu	r7,zero,ffffe138 <nasys_stack_top+0xff7fe138>
 794:	36772d36 	bltu	r6,bt,ffffe44c <nasys_stack_top+0xff7fe44c>
 798:	696d2d34 	orhi	r5,r13,46260
 79c:	3377676e 	bgeu	r6,r13,ffffe53d <nasys_stack_top+0xff7fe53d>
 7a0:	696e2f32 	custom	188,c23,c13,c5
 7a4:	2d32736f 	ldhio	r20,-13875(r5)
 7a8:	2f666c65 	stbio	ea,-26191(r5)
 7ac:	6c77656e 	bgeu	r13,r17,ffffe545 <nasys_stack_top+0xff7fe545>
 7b0:	6c2f6269 	0x6c2f6269
 7b4:	2f636269 	0x2f636269
 7b8:	69727473 	initd	-13871(r13)
 7bc:	6200676e 	bgeu	r12,r8,95d <_nasys_data_source_end+0x135>
 7c0:	65666675 	stwio	r21,-26215(r12)
 7c4:	2e2e0072 	custom	1,c23,c5,c24
 7c8:	2f2e2e2f 	ldhio	fp,-18248(r5)
 7cc:	2e2f2e2e 	bgeu	r5,et,ffffc488 <nasys_stack_top+0xff7fc488>
 7d0:	2e2e2f2e 	bgeu	r5,et,ffffc090 <nasys_stack_top+0xff7fc090>
 7d4:	6372732f 	ldhio	r13,-13876(r12)
 7d8:	77656e2f 	ldhio	ea,-27208(r14)
 7dc:	2d62696c 	andhi	r21,r5,35237
 7e0:	36312e31 	0x36312e31
 7e4:	77656e2f 	ldhio	ea,-27208(r14)
 7e8:	2f62696c 	andhi	ea,r5,35237
 7ec:	6362696c 	andhi	r13,r12,35237
 7f0:	7274732f 	ldhio	r9,-11828(r14)
 7f4:	2f676e69 	0x2f676e69
 7f8:	736d656d 	sthio	r13,-19051(r14)
 7fc:	632e7465 	stbio	r12,-17967(r12)
 800:	2f2e2e00 	call	2f2e2e0 <nasys_stack_top+0x272e2e0>
 804:	2e2f2e2e 	bgeu	r5,et,ffffc4c0 <nasys_stack_top+0xff7fc4c0>
 808:	2e2e2f2e 	bgeu	r5,et,ffffc0c8 <nasys_stack_top+0xff7fc0c8>
 80c:	2f2e2e2f 	ldhio	fp,-18248(r5)
 810:	2f637273 	initd	-29239(r5)
 814:	6c77656e 	bgeu	r13,r17,ffffe5ad <nasys_stack_top+0xff7fe5ad>
 818:	312d6269 	0x312d6269
 81c:	2f36312e 	bgeu	r5,fp,ffffe0e4 <nasys_stack_top+0xff7fe0e4>
 820:	6c77656e 	bgeu	r13,r17,ffffe5b9 <nasys_stack_top+0xff7fe5b9>
 824:	6c2f6269 	0x6c2f6269
 828:	2f636269 	0x2f636269
 82c:	6c647473 	initd	-28207(r13)
 830:	5f2f6269 	0x5f2f6269
 834:	6c61635f 	ldl	r17,-31347(r13)
 838:	74615f6c 	andhi	r17,r14,34173
 83c:	74697865 	stbio	r17,-23071(r14)
 840:	6c00632e 	bgeu	r13,r16,9d0 <_nasys_data_source_end+0x1a8>
 844:	70747361 	0x70747361
 848:	6c5f5f00 	call	6c5f5f0 <nasys_stack_top+0x645f5f0>
 84c:	5f636269 	0x5f636269
 850:	696e6966 	beq	r13,r5,ffffc1f9 <nasys_stack_top+0xff7fc1f9>
 854:	73657200 	call	7365720 <nasys_stack_top+0x6b65720>
 858:	74726174 	orhi	r17,r14,51589
 85c:	65726600 	call	6572660 <nasys_stack_top+0x5d72660>
 860:	2e2e0065 	stbio	et,-18431(r5)
 864:	2f2e2e2f 	ldhio	fp,-18248(r5)
 868:	2e2f2e2e 	bgeu	r5,et,ffffc524 <nasys_stack_top+0xff7fc524>
 86c:	72732f2e 	bgeu	r14,r9,ffffd52c <nasys_stack_top+0xff7fd52c>
 870:	656e2f63 	ldbuio	r21,-18243(r12)
 874:	62696c77 	ldwio	r9,-23119(r12)
 878:	312e312d 	sthio	r4,-18236(r6)
 87c:	696c2f36 	bltu	r13,r5,ffffb93c <nasys_stack_top+0xff7fb93c>
 880:	6f6c6762 	0x6f6c6762
 884:	6e2f7373 	initd	-16947(r13)
 888:	32736f69 	0x32736f69
 88c:	736f6e2f 	ldhio	r13,-16968(r14)
 890:	655f7379 	0x655f7379
 894:	2e746978 	rdprs	bt,r5,-11867
 898:	78650063 	ldbuio	at,-27647(r15)
 89c:	635f7469 	0x635f7469
 8a0:	0065646f 	ldhio	at,-27247(zero)
 8a4:	61665f5f 	ldl	r5,-26243(r12)
 8a8:	665f656b 	ldhuio	bt,32149(r12)
 8ac:	00696e69 	0x696e69

Disassembly of section .debug_loc:

00000000 <.debug_loc>:
   0:	00000398 	cmpnei	zero,zero,14
   4:	0000039c 	xori	zero,zero,14
   8:	008b0002 	0x8b0002
   c:	0000039c 	xori	zero,zero,14
  10:	000003a8 	cmpgeui	zero,zero,14
  14:	188b0002 	0x188b0002
  18:	000003a8 	cmpgeui	zero,zero,14
  1c:	000003ec 	andhi	zero,zero,15
  20:	088c0002 	0x88c0002
	...
  2c:	000003ec 	andhi	zero,zero,15
.text
.global sumthree
sumthree:

addi sp, sp, -24;
  30:	000003f0 	cmpltui	zero,zero,15

stw ra, 20(sp);
  34:	008b0002 	0x8b0002
stw fp, 16(sp);
  38:	000003f0 	cmpltui	zero,zero,15
addi fp, fp, -24;
  3c:	000003f8 	rdprs	zero,zero,15
stw r4, 12(sp);
  40:	0c8b0002 	0xc8b0002
stw r5, 8(sp);
  44:	000003f8 	rdprs	zero,zero,15
stw r6, 4(sp);
  48:	0000041c 	xori	zero,zero,16


call sumtwo
  4c:	048c0002 	0x48c0002
	...

stw r2, 0(sp);
stw r4, 0(sp);
stw r5, 4(sp);
  58:	00000004 	movi	zero,0

call sumtwo
  5c:	00000018 	cmpnei	zero,zero,0

stw r2, 0(sp);
  60:	008b0002 	0x8b0002

ldw ra, 20(sp);
  64:	00000018 	cmpnei	zero,zero,0

ret
  68:	00000044 	movi	zero,1
  6c:	048b0002 	0x48b0002
	...
  7c:	00000003 	ldbu	zero,0(zero)
  80:	03540001 	jmpi	354000 <_gp+0x34b7f0>
  84:	04000000 	call	400000 <_gp+0x3f77f0>
  88:	04000000 	call	400000 <_gp+0x3f77f0>
  8c:	5401f300 	call	5401f30 <nasys_stack_top+0x4c01f30>
  90:	0000009f 	ldl	zero,2(zero)
	...
  9c:	00000300 	call	30 <sumthree>
  a0:	55000100 	call	5500010 <nasys_stack_top+0x4d00010>
  a4:	00000003 	ldbu	zero,0(zero)
  a8:	00000004 	movi	zero,0
  ac:	01f30004 	movi	r7,-13312
  b0:	00009f55 	stw	zero,637(zero)
	...
  bc:	00030000 	call	3000 <_nasys_data_source_end+0x27d8>
  c0:	00010000 	call	1000 <_nasys_data_source_end+0x7d8>
  c4:	00000356 	blt	zero,zero,d5 <exit+0x21>
  c8:	00000400 	call	40 <sumthree+0x10>
  cc:	f3000400 	call	f300040 <nasys_stack_top+0xeb00040>
  d0:	009f5601 	jmpi	9f560 <_gp+0x96d50>
	...
  dc:	04000000 	call	400000 <_gp+0x3f77f0>
  e0:	02000000 	call	200000 <_gp+0x1f77f0>
  e4:	04008b00 	call	4008b0 <_gp+0x3f80a0>
  e8:	38000000 	call	3800000 <nasys_stack_top+0x3000000>
  ec:	02000000 	call	200000 <_gp+0x1f77f0>
  f0:	00088b00 	call	88b0 <_gp+0xa0>
	...
  fc:	17000000 	call	1700000 <nasys_stack_top+0xf00000>
 100:	01000000 	call	100000 <_gp+0xf77f0>
 104:	00175400 	call	17540 <_gp+0xed30>
 108:	00380000 	call	38000 <_gp+0x2f7f0>
 10c:	00010000 	call	1000 <_nasys_data_source_end+0x7d8>
 110:	00000060 	cmpeqi	zero,zero,1
	...
 11c:	00002000 	call	200 <__call_exitprocs+0x38>
 120:	54000100 	call	5400010 <nasys_stack_top+0x4c00010>
 124:	00000020 	cmpeqi	zero,zero,0
 128:	000000dc 	xori	zero,zero,3
 12c:	00520001 	jmpi	52000 <_gp+0x497f0>
	...
 138:	0c000000 	call	c00000 <nasys_stack_top+0x400000>
 13c:	01000000 	call	100000 <_gp+0xf77f0>
 140:	000c5500 	call	c550 <_gp+0x3d40>
 144:	00dc0000 	call	dc000 <_gp+0xd37f0>
 148:	00040000 	call	4000 <_nasys_data_source_end+0x37d8>
 14c:	9f5501f3 	initd	21511(r19)
	...
 15c:	00000038 	rdprs	zero,zero,0
 160:	38560001 	jmpi	3856000 <nasys_stack_top+0x3056000>
 164:	4c000000 	call	4c00000 <nasys_stack_top+0x4400000>
 168:	01000000 	call	100000 <_gp+0xf77f0>
 16c:	004c5800 	call	4c580 <_gp+0x43d70>
 170:	00500000 	call	50000 <_gp+0x477f0>
 174:	00030000 	call	3000 <_nasys_data_source_end+0x27d8>
 178:	509f1078 	rdprs	r2,r10,31809
 17c:	70000000 	call	7000000 <nasys_stack_top+0x6800000>
 180:	01000000 	call	100000 <_gp+0xf77f0>
 184:	00705800 	call	70580 <_gp+0x67d70>
 188:	00800000 	call	80000 <_gp+0x777f0>
 18c:	00010000 	call	1000 <_nasys_data_source_end+0x7d8>
 190:	00008056 	blt	zero,zero,395 <_exit+0x29>
 194:	00008800 	call	880 <_nasys_data_source_end+0x58>
 198:	58000100 	call	5800010 <nasys_stack_top+0x5000010>
 19c:	00000088 	cmpgei	zero,zero,2
 1a0:	0000008c 	andi	zero,zero,2
 1a4:	04780003 	ldbu	r17,-8192(zero)
 1a8:	00008c9f 	ldl	zero,562(zero)
 1ac:	0000ac00 	call	ac0 <_nasys_data_source_end+0x298>
 1b0:	58000100 	call	5800010 <nasys_stack_top+0x5000010>
 1b4:	000000ac 	andhi	zero,zero,2
 1b8:	000000b0 	cmpltui	zero,zero,2
 1bc:	7f760003 	ldbu	ea,-10240(r15)
 1c0:	0000c49f 	ldl	zero,786(zero)
 1c4:	0000c800 	call	c80 <_nasys_data_source_end+0x458>
 1c8:	56000100 	call	5600010 <nasys_stack_top+0x4e00010>
 1cc:	000000c8 	cmpgei	zero,zero,3
 1d0:	000000d0 	cmplti	zero,zero,3
 1d4:	7f760003 	ldbu	ea,-10240(r15)
 1d8:	0000d09f 	ldl	zero,834(zero)
 1dc:	0000d800 	call	d80 <_nasys_data_source_end+0x558>
 1e0:	56000100 	call	5600010 <nasys_stack_top+0x4e00010>
	...
 1ec:	00000008 	cmpgei	zero,zero,0
 1f0:	00000020 	cmpeqi	zero,zero,0
 1f4:	20540001 	jmpi	2054000 <nasys_stack_top+0x1854000>
 1f8:	ac000000 	call	ac00000 <nasys_stack_top+0xa400000>
 1fc:	01000000 	call	100000 <_gp+0xf77f0>
 200:	00ac5200 	call	ac520 <_gp+0xa3d10>
 204:	00c40000 	call	c4000 <_gp+0xbb7f0>
 208:	00010000 	call	1000 <_nasys_data_source_end+0x7d8>
 20c:	0000c453 	initda	785(zero)
 210:	0000c800 	call	c80 <_nasys_data_source_end+0x458>
 214:	52000100 	call	5200010 <nasys_stack_top+0x4a00010>
 218:	000000c8 	cmpgei	zero,zero,3
 21c:	000000cc 	andi	zero,zero,3
 220:	cc530001 	jmpi	cc53000 <nasys_stack_top+0xc453000>
 224:	d8000000 	call	d800000 <nasys_stack_top+0xd000000>
 228:	01000000 	call	100000 <_gp+0xf77f0>
 22c:	00d85200 	call	d8520 <_gp+0xcfd10>
 230:	00dc0000 	call	dc000 <_gp+0xd37f0>
 234:	00010000 	call	1000 <_nasys_data_source_end+0x7d8>
 238:	00000053 	initda	1(zero)
 23c:	00000000 	call	0 <nasys_data_mem>
 240:	00002800 	call	280 <__call_exitprocs+0xb8>
 244:	00003000 	call	300 <__call_exitprocs+0x138>
 248:	53000100 	call	5300010 <nasys_stack_top+0x4b00010>
 24c:	00000030 	cmpltui	zero,zero,0
 250:	000000b0 	cmpltui	zero,zero,2
 254:	00570001 	jmpi	57000 <_gp+0x4e7f0>
 258:	00000000 	call	0 <nasys_data_mem>
 25c:	18000000 	call	1800000 <nasys_stack_top+0x1000000>
 260:	20000000 	call	2000000 <nasys_stack_top+0x1800000>
 264:	01000000 	call	100000 <_gp+0xf77f0>
 268:	00205400 	call	20540 <_gp+0x17d30>
 26c:	00380000 	call	38000 <_gp+0x2f7f0>
 270:	00010000 	call	1000 <_nasys_data_source_end+0x7d8>
 274:	00003852 	0x3852
 278:	00003c00 	call	3c0 <main+0x28>
 27c:	53000100 	call	5300010 <nasys_stack_top+0x4b00010>
 280:	0000003c 	xorhi	zero,zero,0
 284:	00000040 	call	4 <nasys_data_mem+0x4>
 288:	04730003 	ldbu	r17,-13312(zero)
 28c:	0000409f 	ldl	zero,258(zero)
 290:	00004400 	call	440 <_nasys_data_destination+0x20>
 294:	73000300 	call	7300030 <nasys_stack_top+0x6b00030>
 298:	00449f08 	cmpgei	at,zero,4732
 29c:	00500000 	call	50000 <_gp+0x477f0>
 2a0:	00030000 	call	3000 <_nasys_data_source_end+0x27d8>
 2a4:	509f0c73 	initd	31793(r10)
 2a8:	58000000 	call	5800000 <nasys_stack_top+0x5000000>
 2ac:	01000000 	call	100000 <_gp+0xf77f0>
 2b0:	00705300 	call	70530 <_gp+0x67d20>
 2b4:	00800000 	call	80000 <_gp+0x777f0>
 2b8:	00010000 	call	1000 <_nasys_data_source_end+0x7d8>
 2bc:	00008053 	initda	513(zero)
 2c0:	0000ac00 	call	ac0 <_nasys_data_source_end+0x298>
 2c4:	59000100 	call	5900010 <nasys_stack_top+0x5100010>
	...
 2d4:	00000010 	cmplti	zero,zero,0
 2d8:	008b0002 	0x8b0002
 2dc:	00000010 	cmplti	zero,zero,0
 2e0:	000001a0 	cmpeqi	zero,zero,6
 2e4:	348b0002 	0x348b0002
	...
 2f4:	00000050 	cmplti	zero,zero,1
 2f8:	50540001 	jmpi	5054000 <nasys_stack_top+0x4854000>
 2fc:	a0000000 	call	a000000 <nasys_stack_top+0x9800000>
 300:	02000001 	jmpi	200000 <_gp+0x1f77f0>
 304:	00509100 	call	50910 <_gp+0x48100>
	...
 310:	50000000 	call	5000000 <nasys_stack_top+0x4800000>
 314:	01000000 	call	100000 <_gp+0xf77f0>
 318:	00505500 	call	50550 <_gp+0x47d40>
 31c:	00c40000 	call	c4000 <_gp+0xbb7f0>
 320:	00010000 	call	1000 <_nasys_data_source_end+0x7d8>
 324:	0000c46c 	andhi	zero,zero,785
 328:	0000ec00 	call	ec0 <_nasys_data_source_end+0x698>
 32c:	f3000400 	call	f300040 <nasys_stack_top+0xeb00040>
 330:	ec9f5501 	jmpi	ec9f550 <nasys_stack_top+0xe49f550>
 334:	a0000000 	call	a000000 <nasys_stack_top+0x9800000>
 338:	01000001 	jmpi	100000 <_gp+0xf77f0>
 33c:	00006c00 	call	6c0 <_nasys_data_destination+0x2a0>
 340:	00000000 	call	0 <nasys_data_mem>
 344:	005c0000 	call	5c000 <_gp+0x537f0>
 348:	00dc0000 	call	dc000 <_gp+0xd37f0>
 34c:	00010000 	call	1000 <_nasys_data_source_end+0x7d8>
 350:	0000ec62 	0xec62
 354:	00019000 	call	1900 <_nasys_data_source_end+0x10d8>
 358:	62000100 	call	6200010 <nasys_stack_top+0x5a00010>
 35c:	00000190 	cmplti	zero,zero,6
 360:	00000198 	cmpnei	zero,zero,6
 364:	98530001 	jmpi	9853000 <nasys_stack_top+0x9053000>
 368:	a0000001 	jmpi	a000000 <nasys_stack_top+0x9800000>
 36c:	01000001 	jmpi	100000 <_gp+0xf77f0>
 370:	00006200 	call	620 <_nasys_data_destination+0x200>
 374:	00000000 	call	0 <nasys_data_mem>
 378:	005c0000 	call	5c000 <_gp+0x537f0>
 37c:	01900000 	call	190000 <_gp+0x1877f0>
 380:	00020000 	call	2000 <_nasys_data_source_end+0x17d8>
 384:	01905491 	0x1905491
 388:	01980000 	call	198000 <_gp+0x18f7f0>
 38c:	00010000 	call	1000 <_nasys_data_source_end+0x7d8>
 390:	00019867 	ldbio	zero,1633(zero)
 394:	0001a000 	call	1a00 <_nasys_data_source_end+0x11d8>
// declare the sumthree function
int sumthree(int a, int b, int c);

int main() {
 398:	91000200 	call	9100020 <nasys_stack_top+0x8900020>
 39c:	00000054 	movui	zero,1
 3a0:	00000000 	call	0 <nasys_data_mem>
 3a4:	00006000 	call	600 <_nasys_data_destination+0x1e0>
   int z;
   int a=2;
 3a8:	00007c00 	call	7c0 <_nasys_data_destination+0x3a0>
 3ac:	82000400 	call	8200040 <nasys_stack_top+0x7a00040>
   int b=3;
 3b0:	7c9f0188 	cmpgei	r18,r15,31750
 3b4:	b0000000 	call	b000000 <nasys_stack_top+0xa800000>
   int c=4;
 3b8:	01000000 	call	100000 <_gp+0xf77f0>
 3bc:	00b06600 	call	b0660 <_gp+0xa7e50>
   z = sumthree(a,b,c);
 3c0:	00bc0000 	call	bc000 <_gp+0xb37f0>
 3c4:	00040000 	call	4000 <_nasys_data_source_end+0x37d8>
 3c8:	9f018882 	0x9f018882
 3cc:	000000ec 	andhi	zero,zero,3
 3d0:	00000164 	muli	zero,zero,5
   // if you run in a debugger, r2 should be 9 at this point
   
   return 0;
 3d4:	64660001 	jmpi	6466000 <nasys_stack_top+0x5c66000>
}
 3d8:	84000001 	jmpi	8400000 <nasys_stack_top+0x7c00000>
 3dc:	04000001 	jmpi	400000 <_gp+0x3f77f0>
 3e0:	01888200 	call	188820 <_gp+0x180010>
 3e4:	0001889f 	ldl	zero,1570(zero)
 3e8:	00019400 	call	1940 <_nasys_data_source_end+0x1118>

int sumtwo(int a, int b) {
 3ec:	82000400 	call	8200040 <nasys_stack_top+0x7a00040>
 3f0:	949f0188 	cmpgei	r18,r18,31750
 3f4:	98000001 	jmpi	9800000 <nasys_stack_top+0x9000000>
 3f8:	04000001 	jmpi	400000 <_gp+0x3f77f0>
 3fc:	01888700 	call	188870 <_gp+0x180060>
   return a+b;
 400:	0001989f 	ldl	zero,1634(zero)
 404:	0001a000 	call	1a00 <_nasys_data_source_end+0x11d8>
 408:	82000400 	call	8200040 <nasys_stack_top+0x7a00040>
   
 40c:	009f0188 	cmpgei	r2,zero,31750
 410:	00000000 	call	0 <nasys_data_mem>
 414:	68000000 	call	6800000 <nasys_stack_top+0x6000000>
 418:	bc000000 	call	bc00000 <nasys_stack_top+0xb400000>
 41c:	01000000 	call	100000 <_gp+0xf77f0>
 420:	00ec6000 	call	ec600 <_gp+0xe3df0>
 424:	01a00000 	call	1a0000 <_gp+0x1977f0>
 428:	00010000 	call	1000 <_nasys_data_source_end+0x7d8>
 42c:	00000060 	cmpeqi	zero,zero,1
 430:	00000000 	call	0 <nasys_data_mem>
 434:	00008c00 	call	8c0 <_nasys_data_source_end+0x98>
 438:	0000a400 	call	a40 <_nasys_data_source_end+0x218>
 43c:	31000500 	call	3100050 <nasys_stack_top+0x2900050>
 440:	9f240080 	call	9f24008 <nasys_stack_top+0x9724008>
 444:	000000a4 	muli	zero,zero,2
 448:	000000b0 	cmpltui	zero,zero,2
 44c:	80310005 	stb	zero,-15360(r16)
 450:	ec9f2401 	jmpi	ec9f240 <nasys_stack_top+0xe49f240>
 454:	64000000 	call	6400000 <nasys_stack_top+0x5c00000>
 458:	05000001 	jmpi	500000 <_gp+0x4f77f0>
 45c:	00803100 	call	80310 <_gp+0x77b00>
 460:	00009f24 	muli	zero,zero,636
 464:	00000000 	call	0 <nasys_data_mem>
 468:	00f40000 	call	f4000 <_gp+0xeb7f0>
 46c:	01330000 	call	133000 <_gp+0x12a7f0>
 470:	00010000 	call	1000 <_nasys_data_source_end+0x7d8>
 474:	00014853 	initda	1313(zero)
 478:	00014b00 	call	14b0 <_nasys_data_source_end+0xc88>
 47c:	53000100 	call	5300010 <nasys_stack_top+0x4b00010>
 480:	00000150 	cmplti	zero,zero,5
 484:	0000015f 	ldl	zero,5(zero)
 488:	00530001 	jmpi	53000 <_gp+0x4a7f0>
 48c:	00000000 	call	0 <nasys_data_mem>
 490:	14000000 	call	1400000 <nasys_stack_top+0xc00000>
 494:	50000001 	jmpi	5000000 <nasys_stack_top+0x4800000>
 498:	01000001 	jmpi	100000 <_gp+0xf77f0>
 49c:	01586400 	call	158640 <_gp+0x14fe30>
 4a0:	01640000 	call	164000 <_gp+0x15b7f0>
 4a4:	00010000 	call	1000 <_nasys_data_source_end+0x7d8>
 4a8:	00000064 	muli	zero,zero,1
 4ac:	00000000 	call	0 <nasys_data_mem>
 4b0:	00000400 	call	40 <sumthree+0x10>
 4b4:	00000800 	call	80 <__start_2+0x10>
 4b8:	8b000200 	call	8b00020 <nasys_stack_top+0x8300020>
 4bc:	00000800 	call	80 <__start_2+0x10>
 4c0:	00003000 	call	300 <__call_exitprocs+0x138>
 4c4:	8b000200 	call	8b00020 <nasys_stack_top+0x8300020>
 4c8:	00000008 	cmpgei	zero,zero,0
 4cc:	00000000 	call	0 <nasys_data_mem>
 4d0:	00000400 	call	40 <sumthree+0x10>
 4d4:	00001700 	call	170 <memset+0x84>
 4d8:	54000100 	call	5400010 <nasys_stack_top+0x4c00010>
 4dc:	00000017 	ldw	zero,0(zero)
 4e0:	00000030 	cmpltui	zero,zero,0
 4e4:	00600001 	jmpi	60000 <_gp+0x577f0>
 4e8:	00000000 	call	0 <nasys_data_mem>
 4ec:	Address 0x000004ec is out of bounds.


Disassembly of section .debug_ranges:

00000000 <.debug_ranges>:
   0:	00000398 	cmpnei	zero,zero,14
   4:	000003ec 	andhi	zero,zero,15
   8:	000003ec 	andhi	zero,zero,15
   c:	0000041c 	xori	zero,zero,16
	...
  18:	0000008c 	andi	zero,zero,2
  1c:	000000a0 	cmpeqi	zero,zero,2
  20:	000000ec 	andhi	zero,zero,3
  24:	00000164 	muli	zero,zero,5
	...
